
duo-firmware.elf:     file format elf32-littlearm

Sections:
Idx Name          Size      VMA       LMA       File off  Algn
  0 .text         00010680  00002000  00002000  00002000  2**3
                  CONTENTS, ALLOC, LOAD, READONLY, CODE
  1 .fini         00000004  00012680  00012680  00012680  2**2
                  CONTENTS, ALLOC, LOAD, READONLY, CODE
  2 .ARM.exidx    00000008  00012684  00012684  00012684  2**2
                  CONTENTS, ALLOC, LOAD, READONLY, DATA
  3 .usbdescriptortable 000000a0  1fff8000  1fff8000  00020000  2**2
                  ALLOC
  4 .dmabuffers   00008600  1fff8200  1fff8200  00020000  2**9
                  ALLOC
  5 .usbbuffers   00000480  20000800  20000800  00020000  2**2
                  ALLOC
  6 .data         000009e4  20000c80  0001268c  00018c80  2**3
                  CONTENTS, ALLOC, LOAD, DATA
  7 .bss          00001200  20001664  00013070  00019664  2**2
                  ALLOC
  8 .ARM.attributes 0000002a  00000000  00000000  00019664  2**0
                  CONTENTS, READONLY
  9 .comment      00000070  00000000  00000000  0001968e  2**0
                  CONTENTS, READONLY
 10 .debug_info   000482c4  00000000  00000000  000196fe  2**0
                  CONTENTS, READONLY, DEBUGGING
 11 .debug_abbrev 0000c2e4  00000000  00000000  000619c2  2**0
                  CONTENTS, READONLY, DEBUGGING
 12 .debug_loc    000170c5  00000000  00000000  0006dca6  2**0
                  CONTENTS, READONLY, DEBUGGING
 13 .debug_aranges 00001510  00000000  00000000  00084d6b  2**0
                  CONTENTS, READONLY, DEBUGGING
 14 .debug_ranges 00005328  00000000  00000000  0008627b  2**0
                  CONTENTS, READONLY, DEBUGGING
 15 .debug_line   0000cc41  00000000  00000000  0008b5a3  2**0
                  CONTENTS, READONLY, DEBUGGING
 16 .debug_str    0000f1a1  00000000  00000000  000981e4  2**0
                  CONTENTS, READONLY, DEBUGGING
 17 .debug_frame  00003e88  00000000  00000000  000a7388  2**2
                  CONTENTS, READONLY, DEBUGGING

Disassembly of section .text:

00002000 <_VectorsFlash>:
    2000:	00 80 00 20 bd 21 00 00 c1 6b 00 00 79 6b 00 00     ... .!...k..yk..
    2010:	79 6b 00 00 79 6b 00 00 79 6b 00 00 79 6b 00 00     yk..yk..yk..yk..
    2020:	79 6b 00 00 79 6b 00 00 79 6b 00 00 c1 6b 00 00     yk..yk..yk...k..
    2030:	c1 6b 00 00 79 6b 00 00 c1 6b 00 00 69 6b 00 00     .k..yk...k..ik..
    2040:	c1 6b 00 00 c1 6b 00 00 c1 6b 00 00 c1 6b 00 00     .k...k...k...k..
    2050:	c1 6b 00 00 c1 6b 00 00 c1 6b 00 00 c1 6b 00 00     .k...k...k...k..
    2060:	c1 6b 00 00 c1 6b 00 00 c1 6b 00 00 c1 6b 00 00     .k...k...k...k..
    2070:	c1 6b 00 00 c1 6b 00 00 c1 6b 00 00 c1 6b 00 00     .k...k...k...k..
    2080:	c1 6b 00 00 c1 6b 00 00 c1 6b 00 00 c1 6b 00 00     .k...k...k...k..
    2090:	c1 6b 00 00 c1 6b 00 00 c1 6b 00 00 c1 6b 00 00     .k...k...k...k..
    20a0:	c1 6b 00 00 c1 6b 00 00 c1 6b 00 00 c1 6b 00 00     .k...k...k...k..
    20b0:	c1 6b 00 00 c1 6b 00 00 c1 6b 00 00 c1 6b 00 00     .k...k...k...k..
    20c0:	c1 6b 00 00 c1 6b 00 00 c1 6b 00 00 c1 6b 00 00     .k...k...k...k..
    20d0:	c1 6b 00 00 c1 6b 00 00 c1 6b 00 00 c1 6b 00 00     .k...k...k...k..
    20e0:	c1 6b 00 00 c1 6b 00 00 c1 6b 00 00 c1 6b 00 00     .k...k...k...k..
    20f0:	c1 6b 00 00 9d 77 00 00 c1 6b 00 00 f9 7e 00 00     .k...w...k...~..
    2100:	c1 6b 00 00 75 84 00 00 c1 6b 00 00 c1 6b 00 00     .k..u....k...k..
    2110:	c1 6b 00 00 c1 6b 00 00 c1 6b 00 00 c1 6b 00 00     .k...k...k...k..
    2120:	c1 6b 00 00 c1 6b 00 00 c1 6b 00 00 c1 6b 00 00     .k...k...k...k..
    2130:	c1 6b 00 00 c1 6b 00 00 c1 6b 00 00 c1 6b 00 00     .k...k...k...k..
    2140:	c1 6b 00 00 c1 6b 00 00 c1 6b 00 00 c1 6b 00 00     .k...k...k...k..
    2150:	25 9f 00 00 3d 9f 00 00 55 9f 00 00 6d 9f 00 00     %...=...U...m...
    2160:	c1 6b 00 00 dd 87 00 00 c1 6b 00 00 c1 6b 00 00     .k.......k...k..
    2170:	c1 6b 00 00 c1 6b 00 00 c1 6b 00 00 c1 6b 00 00     .k...k...k...k..
    2180:	c1 6b 00 00 c1 6b 00 00 c1 6b 00 00 c1 6b 00 00     .k...k...k...k..
    2190:	c1 6b 00 00 c1 6b 00 00 c1 6b 00 00 c1 6b 00 00     .k...k...k...k..
    21a0:	c1 6b 00 00 c1 6b 00 00 c1 6b 00 00 c1 6b 00 00     .k...k...k...k..
    21b0:	c1 6b 00 00 c1 6b 00 00 bd 99 00 00                 .k...k......

000021bc <ResetHandler>:
	volatile int n;
#endif
	//volatile int count;

#ifdef KINETISK
	WDOG_UNLOCK = WDOG_UNLOCK_SEQ1;
    21bc:	4b57      	ldr	r3, [pc, #348]	; (231c <ResetHandler+0x160>)
    21be:	f24c 5220 	movw	r2, #50464	; 0xc520
{
    21c2:	b510      	push	{r4, lr}
	WDOG_UNLOCK = WDOG_UNLOCK_SEQ1;
    21c4:	801a      	strh	r2, [r3, #0]
	WDOG_UNLOCK = WDOG_UNLOCK_SEQ2;
    21c6:	f64d 1228 	movw	r2, #55592	; 0xd928
    21ca:	801a      	strh	r2, [r3, #0]
	__asm__ volatile ("nop");
    21cc:	bf00      	nop
	__asm__ volatile ("nop");
    21ce:	bf00      	nop
#endif
	// programs using the watchdog timer or needing to initialize hardware as
	// early as possible can implement startup_early_hook()
	startup_early_hook();
    21d0:	f004 fcfa 	bl	6bc8 <startup_early_hook>
	// enable clocks to always-used peripherals
#if defined(__MK20DX128__)
	SIM_SCGC5 = 0x00043F82;		// clocks active to all GPIO
	SIM_SCGC6 = SIM_SCGC6_RTC | SIM_SCGC6_FTM0 | SIM_SCGC6_FTM1 | SIM_SCGC6_ADC0 | SIM_SCGC6_FTFL;
#elif defined(__MK20DX256__)
	SIM_SCGC3 = SIM_SCGC3_ADC1 | SIM_SCGC3_FTM2;
    21d4:	4b52      	ldr	r3, [pc, #328]	; (2320 <ResetHandler+0x164>)
    21d6:	f04f 6210 	mov.w	r2, #150994944	; 0x9000000
    21da:	601a      	str	r2, [r3, #0]
	SIM_SCGC5 = 0x00043F82;		// clocks active to all GPIO
    21dc:	4a51      	ldr	r2, [pc, #324]	; (2324 <ResetHandler+0x168>)
    21de:	609a      	str	r2, [r3, #8]
	SIM_SCGC6 = SIM_SCGC6_RTC | SIM_SCGC6_FTM0 | SIM_SCGC6_FTM1 | SIM_SCGC6_ADC0 | SIM_SCGC6_FTFL;
    21e0:	4a51      	ldr	r2, [pc, #324]	; (2328 <ResetHandler+0x16c>)
    21e2:	60da      	str	r2, [r3, #12]
	UART0_C2 = UART_C2_TE;
	PORTB_PCR17 = PORT_PCR_MUX(3);
#endif
#ifdef KINETISK
	// if the RTC oscillator isn't enabled, get it started early
	if (!(RTC_CR & RTC_CR_OSCE)) {
    21e4:	f5a3 4330 	sub.w	r3, r3, #45056	; 0xb000
    21e8:	3b20      	subs	r3, #32
    21ea:	681a      	ldr	r2, [r3, #0]
    21ec:	f412 7280 	ands.w	r2, r2, #256	; 0x100
    21f0:	d104      	bne.n	21fc <ResetHandler+0x40>
		RTC_SR = 0;
    21f2:	494e      	ldr	r1, [pc, #312]	; (232c <ResetHandler+0x170>)
    21f4:	600a      	str	r2, [r1, #0]
		RTC_CR = RTC_CR_SC16P | RTC_CR_SC4P | RTC_CR_OSCE;
    21f6:	f44f 52a8 	mov.w	r2, #5376	; 0x1500
    21fa:	601a      	str	r2, [r3, #0]
	}
#endif
	// release I/O pins hold, if we woke up from VLLS mode
	if (PMC_REGSC & PMC_REGSC_ACKISO) PMC_REGSC |= PMC_REGSC_ACKISO;
    21fc:	4b4c      	ldr	r3, [pc, #304]	; (2330 <ResetHandler+0x174>)
    21fe:	781a      	ldrb	r2, [r3, #0]
    2200:	0711      	lsls	r1, r2, #28
    2202:	d503      	bpl.n	220c <ResetHandler+0x50>
    2204:	781a      	ldrb	r2, [r3, #0]
    2206:	f042 0208 	orr.w	r2, r2, #8
    220a:	701a      	strb	r2, [r3, #0]
    // since this is a write once register, make it visible to all F_CPU's
    // so we can into other sleep modes in the future at any speed
#if defined(__MK66FX1M0__)
	SMC_PMPROT = SMC_PMPROT_AHSRUN | SMC_PMPROT_AVLP | SMC_PMPROT_ALLS | SMC_PMPROT_AVLLS;
#else
	SMC_PMPROT = SMC_PMPROT_AVLP | SMC_PMPROT_ALLS | SMC_PMPROT_AVLLS;
    220c:	4b49      	ldr	r3, [pc, #292]	; (2334 <ResetHandler+0x178>)
#endif
    
	// TODO: do this while the PLL is waiting to lock....
	while (dest < &_edata) *dest++ = *src++;
    220e:	4c4a      	ldr	r4, [pc, #296]	; (2338 <ResetHandler+0x17c>)
    2210:	484a      	ldr	r0, [pc, #296]	; (233c <ResetHandler+0x180>)
	SMC_PMPROT = SMC_PMPROT_AVLP | SMC_PMPROT_ALLS | SMC_PMPROT_AVLLS;
    2212:	222a      	movs	r2, #42	; 0x2a
    2214:	701a      	strb	r2, [r3, #0]
    2216:	4a4a      	ldr	r2, [pc, #296]	; (2340 <ResetHandler+0x184>)
	while (dest < &_edata) *dest++ = *src++;
    2218:	2300      	movs	r3, #0
    221a:	1899      	adds	r1, r3, r2
    221c:	42a1      	cmp	r1, r4
    221e:	d203      	bcs.n	2228 <ResetHandler+0x6c>
    2220:	5819      	ldr	r1, [r3, r0]
    2222:	5099      	str	r1, [r3, r2]
    2224:	3304      	adds	r3, #4
    2226:	e7f8      	b.n	221a <ResetHandler+0x5e>
    2228:	4b46      	ldr	r3, [pc, #280]	; (2344 <ResetHandler+0x188>)
	dest = &_sbss;
	while (dest < &_ebss) *dest++ = 0;
    222a:	4947      	ldr	r1, [pc, #284]	; (2348 <ResetHandler+0x18c>)
    222c:	2200      	movs	r2, #0
    222e:	428b      	cmp	r3, r1
    2230:	d202      	bcs.n	2238 <ResetHandler+0x7c>
    2232:	f843 2b04 	str.w	r2, [r3], #4
    2236:	e7fa      	b.n	222e <ResetHandler+0x72>

	// default all interrupts to medium priority level
	for (i=0; i < NVIC_NUM_INTERRUPTS + 16; i++) _VectorsRam[i] = _VectorsFlash[i];
    2238:	4844      	ldr	r0, [pc, #272]	; (234c <ResetHandler+0x190>)
    223a:	4945      	ldr	r1, [pc, #276]	; (2350 <ResetHandler+0x194>)
	while (dest < &_ebss) *dest++ = 0;
    223c:	2300      	movs	r3, #0
	for (i=0; i < NVIC_NUM_INTERRUPTS + 16; i++) _VectorsRam[i] = _VectorsFlash[i];
    223e:	585a      	ldr	r2, [r3, r1]
    2240:	501a      	str	r2, [r3, r0]
    2242:	3304      	adds	r3, #4
    2244:	f5b3 7fde 	cmp.w	r3, #444	; 0x1bc
    2248:	d1f9      	bne.n	223e <ResetHandler+0x82>
    224a:	4b42      	ldr	r3, [pc, #264]	; (2354 <ResetHandler+0x198>)
	for (i=0; i < NVIC_NUM_INTERRUPTS; i++) NVIC_SET_PRIORITY(i, 128);
    224c:	4a42      	ldr	r2, [pc, #264]	; (2358 <ResetHandler+0x19c>)
    224e:	2180      	movs	r1, #128	; 0x80
    2250:	f803 1b01 	strb.w	r1, [r3], #1
    2254:	4293      	cmp	r3, r2
    2256:	d1fb      	bne.n	2250 <ResetHandler+0x94>
	SCB_VTOR = (uint32_t)_VectorsRam;	// use vector table in RAM
    2258:	4b40      	ldr	r3, [pc, #256]	; (235c <ResetHandler+0x1a0>)
    225a:	4a3c      	ldr	r2, [pc, #240]	; (234c <ResetHandler+0x190>)
    225c:	601a      	str	r2, [r3, #0]
	//  C6[PLLS] bit is written to 0
	//  C2[LP] bit is written to 1
#else
    #if defined(KINETISK)
    // enable capacitors for crystal
    OSC0_CR = OSC_SC8P | OSC_SC2P | OSC_ERCLKEN;
    225e:	4b40      	ldr	r3, [pc, #256]	; (2360 <ResetHandler+0x1a4>)
    2260:	228a      	movs	r2, #138	; 0x8a
    2262:	701a      	strb	r2, [r3, #0]
    #elif defined(KINETISL)
    // enable capacitors for crystal
    OSC0_CR = OSC_SC8P | OSC_SC2P | OSC_ERCLKEN;
    #endif
	// enable osc, 8-32 MHz range, low power mode
	MCG_C2 = MCG_C2_RANGE0(2) | MCG_C2_EREFS;
    2264:	f5a3 5380 	sub.w	r3, r3, #4096	; 0x1000
    2268:	2224      	movs	r2, #36	; 0x24
    226a:	705a      	strb	r2, [r3, #1]
	// switch to crystal as clock source, FLL input = 16 MHz / 512
	MCG_C1 =  MCG_C1_CLKS(2) | MCG_C1_FRDIV(4);
    226c:	22a0      	movs	r2, #160	; 0xa0
    226e:	701a      	strb	r2, [r3, #0]
	// wait for crystal oscillator to begin
	while ((MCG_S & MCG_S_OSCINIT0) == 0) ;
    2270:	799a      	ldrb	r2, [r3, #6]
    2272:	0792      	lsls	r2, r2, #30
    2274:	d5fc      	bpl.n	2270 <ResetHandler+0xb4>
	// wait for FLL to use oscillator
	while ((MCG_S & MCG_S_IREFST) != 0) ;
    2276:	799a      	ldrb	r2, [r3, #6]
    2278:	06d4      	lsls	r4, r2, #27
    227a:	d4fc      	bmi.n	2276 <ResetHandler+0xba>
	// wait for MCGOUT to use oscillator
	while ((MCG_S & MCG_S_CLKST_MASK) != MCG_S_CLKST(2)) ;
    227c:	4a39      	ldr	r2, [pc, #228]	; (2364 <ResetHandler+0x1a8>)
    227e:	7993      	ldrb	r3, [r2, #6]
    2280:	f003 030c 	and.w	r3, r3, #12
    2284:	2b08      	cmp	r3, #8
    2286:	4b37      	ldr	r3, [pc, #220]	; (2364 <ResetHandler+0x1a8>)
    2288:	d1f9      	bne.n	227e <ResetHandler+0xc2>
    #elif F_CPU > 16000000
    #error "MK66FX1M0 does not support this clock speed yet...."
    #endif
   #else
    #if F_CPU == 72000000
	MCG_C5 = MCG_C5_PRDIV0(5);		 // config PLL input for 16 MHz Crystal / 6 = 2.667 Hz
    228a:	2205      	movs	r2, #5
    228c:	711a      	strb	r2, [r3, #4]
    #elif F_CPU == 144000000
	MCG_C6 = MCG_C6_PLLS | MCG_C6_VDIV0(12); // config PLL for 144 MHz output
    #elif F_CPU == 120000000
	MCG_C6 = MCG_C6_PLLS | MCG_C6_VDIV0(6); // config PLL for 120 MHz output
    #elif F_CPU == 72000000
	MCG_C6 = MCG_C6_PLLS | MCG_C6_VDIV0(3); // config PLL for 72 MHz output
    228e:	2243      	movs	r2, #67	; 0x43
    2290:	715a      	strb	r2, [r3, #5]
    #error "This clock speed isn't supported..."
    #endif
   #endif

	// wait for PLL to start using xtal as its input
	while (!(MCG_S & MCG_S_PLLST)) ;
    2292:	799a      	ldrb	r2, [r3, #6]
    2294:	0690      	lsls	r0, r2, #26
    2296:	d5fc      	bpl.n	2292 <ResetHandler+0xd6>
	// wait for PLL to lock
	while (!(MCG_S & MCG_S_LOCK0)) ;
    2298:	4a32      	ldr	r2, [pc, #200]	; (2364 <ResetHandler+0x1a8>)
    229a:	7991      	ldrb	r1, [r2, #6]
    229c:	4b31      	ldr	r3, [pc, #196]	; (2364 <ResetHandler+0x1a8>)
    229e:	0649      	lsls	r1, r1, #25
    22a0:	d5fb      	bpl.n	229a <ResetHandler+0xde>
	#endif
	SIM_CLKDIV2 = SIM_CLKDIV2_USBDIV(1);
#elif F_CPU == 72000000
	// config divisors: 72 MHz core, 36 MHz bus, 24 MHz flash, USB = 72 * 2 / 3
	#if F_BUS == 36000000
	SIM_CLKDIV1 = SIM_CLKDIV1_OUTDIV1(0) | SIM_CLKDIV1_OUTDIV2(1) | SIM_CLKDIV1_OUTDIV4(2);
    22a2:	4a31      	ldr	r2, [pc, #196]	; (2368 <ResetHandler+0x1ac>)
    22a4:	f04f 7181 	mov.w	r1, #16908288	; 0x1020000
    22a8:	6011      	str	r1, [r2, #0]
	#elif F_BUS == 72000000
	SIM_CLKDIV1 = SIM_CLKDIV1_OUTDIV1(0) | SIM_CLKDIV1_OUTDIV2(0) | SIM_CLKDIV1_OUTDIV4(2);
	#else
	#error "This F_CPU & F_BUS combination is not supported"
	#endif
	SIM_CLKDIV2 = SIM_CLKDIV2_USBDIV(2) | SIM_CLKDIV2_USBFRAC;
    22aa:	2105      	movs	r1, #5
    22ac:	6051      	str	r1, [r2, #4]
#error "Error, F_CPU must be 192, 180, 168, 144, 120, 96, 72, 48, 24, 16, 8, 4, or 2 MHz"
#endif

#if F_CPU > 16000000
	// switch to PLL as clock source, FLL input = 16 MHz / 512
	MCG_C1 = MCG_C1_CLKS(0) | MCG_C1_FRDIV(4);
    22ae:	2220      	movs	r2, #32
    22b0:	701a      	strb	r2, [r3, #0]
	// wait for PLL clock to be used
	while ((MCG_S & MCG_S_CLKST_MASK) != MCG_S_CLKST(3)) ;
    22b2:	799a      	ldrb	r2, [r3, #6]
    22b4:	f002 020c 	and.w	r2, r2, #12
    22b8:	2a0c      	cmp	r2, #12
    22ba:	d1fa      	bne.n	22b2 <ResetHandler+0xf6>
	// USB uses PLL clock, trace is CPU clock, CLKOUT=OSCERCLK0
	#if defined(KINETISK)
	#if F_CPU == 216000000 || F_CPU == 180000000
	SIM_SOPT2 = SIM_SOPT2_USBSRC | SIM_SOPT2_IRC48SEL | SIM_SOPT2_TRACECLKSEL | SIM_SOPT2_CLKOUTSEL(6);
	#else
	SIM_SOPT2 = SIM_SOPT2_USBSRC | SIM_SOPT2_PLLFLLSEL | SIM_SOPT2_TRACECLKSEL | SIM_SOPT2_CLKOUTSEL(6);
    22bc:	4b2b      	ldr	r3, [pc, #172]	; (236c <ResetHandler+0x1b0>)
    22be:	4a2c      	ldr	r2, [pc, #176]	; (2370 <ResetHandler+0x1b4>)
    22c0:	601a      	str	r2, [r3, #0]
    // since we are not going into "stop mode" i removed it
	SMC_PMCTRL = SMC_PMCTRL_RUNM(2); // VLPR mode :-)
#endif

	// initialize the SysTick counter
	SYST_RVR = (F_CPU / 1000) - 1;
    22c2:	4b2c      	ldr	r3, [pc, #176]	; (2374 <ResetHandler+0x1b8>)
    22c4:	4a2c      	ldr	r2, [pc, #176]	; (2378 <ResetHandler+0x1bc>)
    22c6:	601a      	str	r2, [r3, #0]
	SYST_CVR = 0;
    22c8:	2200      	movs	r2, #0
    22ca:	605a      	str	r2, [r3, #4]
	SYST_CSR = SYST_CSR_CLKSOURCE | SYST_CSR_TICKINT | SYST_CSR_ENABLE;
    22cc:	2207      	movs	r2, #7
    22ce:	f843 2c04 	str.w	r2, [r3, #-4]
	SCB_SHPR3 = 0x20200000;  // Systick = priority 32
    22d2:	4a2a      	ldr	r2, [pc, #168]	; (237c <ResetHandler+0x1c0>)
    22d4:	f8c3 2d0c 	str.w	r2, [r3, #3340]	; 0xd0c

	//init_pins();
	__enable_irq();
    22d8:	b662      	cpsie	i

	_init_Teensyduino_internal_();
    22da:	f004 fea7 	bl	702c <_init_Teensyduino_internal_>

#if defined(KINETISK)
	// RTC initialization
	if (RTC_SR & RTC_SR_TIF) {
    22de:	4b13      	ldr	r3, [pc, #76]	; (232c <ResetHandler+0x170>)
    22e0:	681b      	ldr	r3, [r3, #0]
    22e2:	07da      	lsls	r2, r3, #31
    22e4:	d505      	bpl.n	22f2 <ResetHandler+0x136>
		// compiled-in time will be stale.  Write a special
		// flag into the VBAT register file indicating the
		// RTC is set with known-stale time and should be
		// updated when fresh time is known.
		#if ARDUINO >= 10600
		rtc_set((uint32_t)&__rtc_localtime);
    22e6:	4826      	ldr	r0, [pc, #152]	; (2380 <ResetHandler+0x1c4>)
    22e8:	f004 fd3a 	bl	6d60 <rtc_set>
		#else
		rtc_set(TIME_T);
		#endif
		*(uint32_t *)0x4003E01C = 0x5A94C3A5;
    22ec:	4b25      	ldr	r3, [pc, #148]	; (2384 <ResetHandler+0x1c8>)
    22ee:	4a26      	ldr	r2, [pc, #152]	; (2388 <ResetHandler+0x1cc>)
    22f0:	601a      	str	r2, [r3, #0]
	}
	if ((RCM_SRS0 & RCM_SRS0_PIN) && (*(uint32_t *)0x4003E01C == 0x5A94C3A5)) {
    22f2:	4b26      	ldr	r3, [pc, #152]	; (238c <ResetHandler+0x1d0>)
    22f4:	781b      	ldrb	r3, [r3, #0]
    22f6:	065b      	lsls	r3, r3, #25
    22f8:	d509      	bpl.n	230e <ResetHandler+0x152>
    22fa:	4c22      	ldr	r4, [pc, #136]	; (2384 <ResetHandler+0x1c8>)
    22fc:	4a22      	ldr	r2, [pc, #136]	; (2388 <ResetHandler+0x1cc>)
    22fe:	6823      	ldr	r3, [r4, #0]
    2300:	4293      	cmp	r3, r2
    2302:	d104      	bne.n	230e <ResetHandler+0x152>
		// Our compiled-in time will be very fresh, so set
		// the RTC with this, and clear the VBAT resister file
		// data so we don't mess with the time after it's been
		// set well.
		#if ARDUINO >= 10600
		rtc_set((uint32_t)&__rtc_localtime);
    2304:	481e      	ldr	r0, [pc, #120]	; (2380 <ResetHandler+0x1c4>)
    2306:	f004 fd2b 	bl	6d60 <rtc_set>
		#else
		rtc_set(TIME_T);
		#endif
		*(uint32_t *)0x4003E01C = 0;
    230a:	2300      	movs	r3, #0
    230c:	6023      	str	r3, [r4, #0]
	}
#endif

	__libc_init_array();
    230e:	f00b fbe7 	bl	dae0 <__libc_init_array>

	startup_late_hook();
    2312:	f004 fc5f 	bl	6bd4 <startup_late_hook>
	main();
    2316:	f007 fefb 	bl	a110 <main>
    231a:	e7fe      	b.n	231a <ResetHandler+0x15e>
    231c:	4005200e 	.word	0x4005200e
    2320:	40048030 	.word	0x40048030
    2324:	00043f82 	.word	0x00043f82
    2328:	2b000001 	.word	0x2b000001
    232c:	4003d014 	.word	0x4003d014
    2330:	4007d002 	.word	0x4007d002
    2334:	4007e000 	.word	0x4007e000
    2338:	20001664 	.word	0x20001664
    233c:	0001268c 	.word	0x0001268c
    2340:	20000c80 	.word	0x20000c80
    2344:	20001664 	.word	0x20001664
    2348:	20002864 	.word	0x20002864
    234c:	20000400 	.word	0x20000400
    2350:	00002000 	.word	0x00002000
    2354:	e000e400 	.word	0xe000e400
    2358:	e000e45f 	.word	0xe000e45f
    235c:	e000ed08 	.word	0xe000ed08
    2360:	40065000 	.word	0x40065000
    2364:	40064000 	.word	0x40064000
    2368:	40048044 	.word	0x40048044
    236c:	40048004 	.word	0x40048004
    2370:	000510c0 	.word	0x000510c0
    2374:	e000e014 	.word	0xe000e014
    2378:	0001193f 	.word	0x0001193f
    237c:	20200000 	.word	0x20200000
    2380:	00000000 	.word	0x00000000
    2384:	4003e01c 	.word	0x4003e01c
    2388:	5a94c3a5 	.word	0x5a94c3a5
    238c:	4007f000 	.word	0x4007f000
    2390:	ffffffff 	.word	0xffffffff
    2394:	ffffffff 	.word	0xffffffff
    2398:	ffffffff 	.word	0xffffffff
    239c:	ffffffff 	.word	0xffffffff
    23a0:	ffffffff 	.word	0xffffffff
    23a4:	ffffffff 	.word	0xffffffff
    23a8:	ffffffff 	.word	0xffffffff
    23ac:	ffffffff 	.word	0xffffffff
    23b0:	ffffffff 	.word	0xffffffff
    23b4:	ffffffff 	.word	0xffffffff
    23b8:	ffffffff 	.word	0xffffffff
    23bc:	ffffffff 	.word	0xffffffff
    23c0:	ffffffff 	.word	0xffffffff
    23c4:	ffffffff 	.word	0xffffffff
    23c8:	ffffffff 	.word	0xffffffff
    23cc:	ffffffff 	.word	0xffffffff
    23d0:	ffffffff 	.word	0xffffffff
    23d4:	ffffffff 	.word	0xffffffff
    23d8:	ffffffff 	.word	0xffffffff
    23dc:	ffffffff 	.word	0xffffffff
    23e0:	ffffffff 	.word	0xffffffff
    23e4:	ffffffff 	.word	0xffffffff
    23e8:	ffffffff 	.word	0xffffffff
    23ec:	ffffffff 	.word	0xffffffff
    23f0:	ffffffff 	.word	0xffffffff
    23f4:	ffffffff 	.word	0xffffffff
    23f8:	ffffffff 	.word	0xffffffff
    23fc:	ffffffff 	.word	0xffffffff

00002400 <flashconfigbytes>:
    2400:	ffffffff ffffffff ffffffff fffff9de     ................

00002410 <__do_global_dtors_aux>:
    2410:	b510      	push	{r4, lr}
    2412:	4c05      	ldr	r4, [pc, #20]	; (2428 <__do_global_dtors_aux+0x18>)
    2414:	7823      	ldrb	r3, [r4, #0]
    2416:	b933      	cbnz	r3, 2426 <__do_global_dtors_aux+0x16>
    2418:	4b04      	ldr	r3, [pc, #16]	; (242c <__do_global_dtors_aux+0x1c>)
    241a:	b113      	cbz	r3, 2422 <__do_global_dtors_aux+0x12>
    241c:	4804      	ldr	r0, [pc, #16]	; (2430 <__do_global_dtors_aux+0x20>)
    241e:	f3af 8000 	nop.w
    2422:	2301      	movs	r3, #1
    2424:	7023      	strb	r3, [r4, #0]
    2426:	bd10      	pop	{r4, pc}
    2428:	20001664 	.word	0x20001664
    242c:	00000000 	.word	0x00000000
    2430:	00012684 	.word	0x00012684

00002434 <frame_dummy>:
    2434:	b508      	push	{r3, lr}
    2436:	4b06      	ldr	r3, [pc, #24]	; (2450 <frame_dummy+0x1c>)
    2438:	b11b      	cbz	r3, 2442 <frame_dummy+0xe>
    243a:	4806      	ldr	r0, [pc, #24]	; (2454 <frame_dummy+0x20>)
    243c:	4906      	ldr	r1, [pc, #24]	; (2458 <frame_dummy+0x24>)
    243e:	f3af 8000 	nop.w
    2442:	4806      	ldr	r0, [pc, #24]	; (245c <frame_dummy+0x28>)
    2444:	6803      	ldr	r3, [r0, #0]
    2446:	b113      	cbz	r3, 244e <frame_dummy+0x1a>
    2448:	4b05      	ldr	r3, [pc, #20]	; (2460 <frame_dummy+0x2c>)
    244a:	b103      	cbz	r3, 244e <frame_dummy+0x1a>
    244c:	4798      	blx	r3
    244e:	bd08      	pop	{r3, pc}
    2450:	00000000 	.word	0x00000000
    2454:	00012684 	.word	0x00012684
    2458:	20001668 	.word	0x20001668
    245c:	20001664 	.word	0x20001664
    2460:	00000000 	.word	0x00000000

00002464 <_ZN25AudioEffectCustomEnvelope9updateEnvEv>:
  }
  return static_cast<int>(milliseconds*SAMPLES_PER_MSEC);
}


void AudioEffectCustomEnvelope::updateEnv(){
    2464:	e92d 47f0 	stmdb	sp!, {r4, r5, r6, r7, r8, r9, sl, lr}
    2468:	4604      	mov	r4, r0
  env.adsr(
      static_cast<int>(milliseconds2count(attackMs))
      ,static_cast<int>(milliseconds2count(decayMs))
      ,sustainVal
      ,static_cast<int>(milliseconds2count(releaseMs))
    );
    246a:	6bc0      	ldr	r0, [r0, #60]	; 0x3c
    246c:	f00a fe02 	bl	d074 <__aeabi_i2f>
  if (milliseconds < 0.0){
    2470:	2100      	movs	r1, #0
    );
    2472:	4605      	mov	r5, r0
  if (milliseconds < 0.0){
    2474:	f00a fff0 	bl	d458 <__aeabi_fcmplt>
    2478:	2800      	cmp	r0, #0
    247a:	d178      	bne.n	256e <_ZN25AudioEffectCustomEnvelope9updateEnvEv+0x10a>
    247c:	493d      	ldr	r1, [pc, #244]	; (2574 <_ZN25AudioEffectCustomEnvelope9updateEnvEv+0x110>)
    247e:	4628      	mov	r0, r5
    2480:	f00a fe4c 	bl	d11c <__aeabi_fmul>
    2484:	f00b f810 	bl	d4a8 <__aeabi_f2iz>
    2488:	4680      	mov	r8, r0
    );
    248a:	6c20      	ldr	r0, [r4, #64]	; 0x40
    248c:	f00a fdf2 	bl	d074 <__aeabi_i2f>
  if (milliseconds < 0.0){
    2490:	2100      	movs	r1, #0
    );
    2492:	4605      	mov	r5, r0
  if (milliseconds < 0.0){
    2494:	f00a ffe0 	bl	d458 <__aeabi_fcmplt>
    2498:	2800      	cmp	r0, #0
    249a:	d166      	bne.n	256a <_ZN25AudioEffectCustomEnvelope9updateEnvEv+0x106>
    249c:	4935      	ldr	r1, [pc, #212]	; (2574 <_ZN25AudioEffectCustomEnvelope9updateEnvEv+0x110>)
    249e:	4628      	mov	r0, r5
    24a0:	f00a fe3c 	bl	d11c <__aeabi_fmul>
    24a4:	f00b f800 	bl	d4a8 <__aeabi_f2iz>
    24a8:	4607      	mov	r7, r0
    );
    24aa:	6ca0      	ldr	r0, [r4, #72]	; 0x48
    24ac:	6c65      	ldr	r5, [r4, #68]	; 0x44
    24ae:	f00a fde1 	bl	d074 <__aeabi_i2f>
  if (milliseconds < 0.0){
    24b2:	2100      	movs	r1, #0
    );
    24b4:	4606      	mov	r6, r0
  if (milliseconds < 0.0){
    24b6:	f00a ffcf 	bl	d458 <__aeabi_fcmplt>
    24ba:	2800      	cmp	r0, #0
    24bc:	d144      	bne.n	2548 <_ZN25AudioEffectCustomEnvelope9updateEnvEv+0xe4>
    24be:	4630      	mov	r0, r6
    24c0:	492c      	ldr	r1, [pc, #176]	; (2574 <_ZN25AudioEffectCustomEnvelope9updateEnvEv+0x110>)
    24c2:	f00a fe2b 	bl	d11c <__aeabi_fmul>
    24c6:	f00a ffef 	bl	d4a8 <__aeabi_f2iz>
      int decayRate = 0;
      int releaseRate = 0;
      int sustainLevel = 0;

      static inline int calcRate(int val, int time) {
        if(time > 0){
    24ca:	f1b8 0f00 	cmp.w	r8, #0
    24ce:	4681      	mov	r9, r0
    conf = Envelope::Config(maxValue, attack, decay, sustain, release);
    24d0:	6a26      	ldr	r6, [r4, #32]
        if(time > 0){
    24d2:	dd3f      	ble.n	2554 <_ZN25AudioEffectCustomEnvelope9updateEnvEv+0xf0>
          return static_cast<int>(static_cast<float>(val)/time);
    24d4:	4630      	mov	r0, r6
    24d6:	f00a fdcd 	bl	d074 <__aeabi_i2f>
    24da:	4682      	mov	sl, r0
    24dc:	4640      	mov	r0, r8
    24de:	f00a fdc9 	bl	d074 <__aeabi_i2f>
    24e2:	4601      	mov	r1, r0
    24e4:	4650      	mov	r0, sl
    24e6:	f00a fecd 	bl	d284 <__aeabi_fdiv>
    24ea:	f00a ffdd 	bl	d4a8 <__aeabi_f2iz>
        if(time > 0){
    24ee:	2f00      	cmp	r7, #0
          return static_cast<int>(static_cast<float>(val)/time);
    24f0:	4680      	mov	r8, r0
        if(time > 0){
    24f2:	dd33      	ble.n	255c <_ZN25AudioEffectCustomEnvelope9updateEnvEv+0xf8>
          return static_cast<int>(static_cast<float>(val)/time);
    24f4:	1b70      	subs	r0, r6, r5
    24f6:	f00a fdbd 	bl	d074 <__aeabi_i2f>
    24fa:	4682      	mov	sl, r0
    24fc:	4638      	mov	r0, r7
    24fe:	f00a fdb9 	bl	d074 <__aeabi_i2f>
    2502:	4601      	mov	r1, r0
    2504:	4650      	mov	r0, sl
    2506:	f00a febd 	bl	d284 <__aeabi_fdiv>
    250a:	f00a ffcd 	bl	d4a8 <__aeabi_f2iz>
        if(time > 0){
    250e:	f1b9 0f00 	cmp.w	r9, #0
    2512:	f1c0 0700 	rsb	r7, r0, #0
    2516:	dd26      	ble.n	2566 <_ZN25AudioEffectCustomEnvelope9updateEnvEv+0x102>
          return static_cast<int>(static_cast<float>(val)/time);
    2518:	4628      	mov	r0, r5
    251a:	f00a fdab 	bl	d074 <__aeabi_i2f>
    251e:	4682      	mov	sl, r0
    2520:	4648      	mov	r0, r9
    2522:	f00a fda7 	bl	d074 <__aeabi_i2f>
    2526:	4601      	mov	r1, r0
    2528:	4650      	mov	r0, sl
    252a:	f00a feab 	bl	d284 <__aeabi_fdiv>
    252e:	f00a ffbb 	bl	d4a8 <__aeabi_f2iz>
    2532:	4240      	negs	r0, r0
    conf = Envelope::Config(maxValue, attack, decay, sustain, release);
    2534:	f8c4 802c 	str.w	r8, [r4, #44]	; 0x2c
    2538:	6327      	str	r7, [r4, #48]	; 0x30
    253a:	6360      	str	r0, [r4, #52]	; 0x34
    253c:	42ae      	cmp	r6, r5
    253e:	bfd4      	ite	le
    2540:	63a6      	strle	r6, [r4, #56]	; 0x38
    2542:	63a5      	strgt	r5, [r4, #56]	; 0x38
    2544:	e8bd 87f0 	ldmia.w	sp!, {r4, r5, r6, r7, r8, r9, sl, pc}
        if(time > 0){
    2548:	f1b8 0f00 	cmp.w	r8, #0
    254c:	f04f 0900 	mov.w	r9, #0
    conf = Envelope::Config(maxValue, attack, decay, sustain, release);
    2550:	6a26      	ldr	r6, [r4, #32]
        if(time > 0){
    2552:	dcbf      	bgt.n	24d4 <_ZN25AudioEffectCustomEnvelope9updateEnvEv+0x70>
    2554:	2f00      	cmp	r7, #0
        }else{
          return 0;
    2556:	f04f 0800 	mov.w	r8, #0
        if(time > 0){
    255a:	dccb      	bgt.n	24f4 <_ZN25AudioEffectCustomEnvelope9updateEnvEv+0x90>
    255c:	f1b9 0f00 	cmp.w	r9, #0
    2560:	f04f 0700 	mov.w	r7, #0
    2564:	dcd8      	bgt.n	2518 <_ZN25AudioEffectCustomEnvelope9updateEnvEv+0xb4>
    2566:	2000      	movs	r0, #0
    2568:	e7e4      	b.n	2534 <_ZN25AudioEffectCustomEnvelope9updateEnvEv+0xd0>
    256a:	2700      	movs	r7, #0
    256c:	e79d      	b.n	24aa <_ZN25AudioEffectCustomEnvelope9updateEnvEv+0x46>
    256e:	f04f 0800 	mov.w	r8, #0
    2572:	e78a      	b.n	248a <_ZN25AudioEffectCustomEnvelope9updateEnvEv+0x26>
    2574:	42300000 	.word	0x42300000

00002578 <_ZN25AudioEffectCustomEnvelope6attackEi>:
}

void AudioEffectCustomEnvelope::attack(int milliseconds) {
  attackMs = milliseconds;
    2578:	63c1      	str	r1, [r0, #60]	; 0x3c
  updateEnv();
    257a:	f7ff bf73 	b.w	2464 <_ZN25AudioEffectCustomEnvelope9updateEnvEv>
    257e:	bf00      	nop

00002580 <_ZN25AudioEffectCustomEnvelope5decayEi>:
}


void AudioEffectCustomEnvelope::decay(int milliseconds){
  decayMs = milliseconds;
    2580:	6401      	str	r1, [r0, #64]	; 0x40
  updateEnv();
    2582:	f7ff bf6f 	b.w	2464 <_ZN25AudioEffectCustomEnvelope9updateEnvEv>
    2586:	bf00      	nop

00002588 <_ZN25AudioEffectCustomEnvelope7sustainEf>:
}


void AudioEffectCustomEnvelope::sustain(float level) {
    2588:	b510      	push	{r4, lr}
    258a:	4604      	mov	r4, r0
  sustainVal = static_cast<int>(level * ENVELOPE_MAX);
    258c:	4608      	mov	r0, r1
    258e:	f04f 418f 	mov.w	r1, #1199570944	; 0x47800000
    2592:	f00a fdc3 	bl	d11c <__aeabi_fmul>
    2596:	f00a ff87 	bl	d4a8 <__aeabi_f2iz>
    259a:	6460      	str	r0, [r4, #68]	; 0x44
  updateEnv();
    259c:	4620      	mov	r0, r4
}
    259e:	e8bd 4010 	ldmia.w	sp!, {r4, lr}
  updateEnv();
    25a2:	f7ff bf5f 	b.w	2464 <_ZN25AudioEffectCustomEnvelope9updateEnvEv>
    25a6:	bf00      	nop

000025a8 <_ZN25AudioEffectCustomEnvelope7releaseEi>:


void AudioEffectCustomEnvelope::release(int milliseconds) {
  releaseMs = milliseconds;
    25a8:	6481      	str	r1, [r0, #72]	; 0x48
  updateEnv();
    25aa:	f7ff bf5b 	b.w	2464 <_ZN25AudioEffectCustomEnvelope9updateEnvEv>
    25ae:	bf00      	nop

000025b0 <_ZN25AudioEffectCustomEnvelope6noteOnEv>:
}

void AudioEffectCustomEnvelope::noteOn(void) {
  __disable_irq();
    25b0:	b672      	cpsid	i
  inline void on(){ state = Attack; }
    25b2:	2301      	movs	r3, #1
    25b4:	7703      	strb	r3, [r0, #28]
  env.on();
  __enable_irq();
    25b6:	b662      	cpsie	i
    25b8:	4770      	bx	lr
    25ba:	bf00      	nop

000025bc <_ZN25AudioEffectCustomEnvelope7noteOffEv>:
}

void AudioEffectCustomEnvelope::noteOff(void) {
  __disable_irq();
    25bc:	b672      	cpsid	i
  inline void off(){ state = Release; }
    25be:	2304      	movs	r3, #4
    25c0:	7703      	strb	r3, [r0, #28]
  env.off();
  __enable_irq();
    25c2:	b662      	cpsie	i
    25c4:	4770      	bx	lr
    25c6:	bf00      	nop

000025c8 <_ZN9NoteStack7NoteOffEh>:
    sorted_ptr_[size_] = free_slot;
  }
  ++size_;
}

void NoteStack::NoteOff(uint8_t note) {
    25c8:	b4f0      	push	{r4, r5, r6, r7}
  uint8_t current = root_ptr_;
    25ca:	f890 6022 	ldrb.w	r6, [r0, #34]	; 0x22
  uint8_t previous = 0;
  while (current) {
    25ce:	b1ae      	cbz	r6, 25fc <_ZN9NoteStack7NoteOffEh+0x34>
    if (pool_[current].note == note) {
    25d0:	eb06 0246 	add.w	r2, r6, r6, lsl #1
    25d4:	4402      	add	r2, r0
    25d6:	4633      	mov	r3, r6
    25d8:	7854      	ldrb	r4, [r2, #1]
    25da:	428c      	cmp	r4, r1
    25dc:	d104      	bne.n	25e8 <_ZN9NoteStack7NoteOffEh+0x20>
    25de:	e035      	b.n	264c <_ZN9NoteStack7NoteOffEh+0x84>
    25e0:	7865      	ldrb	r5, [r4, #1]
    25e2:	428d      	cmp	r5, r1
    25e4:	d00c      	beq.n	2600 <_ZN9NoteStack7NoteOffEh+0x38>
    25e6:	461e      	mov	r6, r3
      break;
    }
    previous = current;
    current = pool_[current].next_ptr;
    25e8:	eb03 0343 	add.w	r3, r3, r3, lsl #1
    25ec:	4403      	add	r3, r0
    25ee:	78da      	ldrb	r2, [r3, #3]
    if (pool_[current].note == note) {
    25f0:	eb02 0442 	add.w	r4, r2, r2, lsl #1
    25f4:	4613      	mov	r3, r2
    25f6:	4404      	add	r4, r0
  while (current) {
    25f8:	2a00      	cmp	r2, #0
    25fa:	d1f1      	bne.n	25e0 <_ZN9NoteStack7NoteOffEh+0x18>
    pool_[current].next_ptr = 0;
    pool_[current].note = kFreeSlot;
    pool_[current].velocity = 0;
    --size_;
  }
}
    25fc:	bcf0      	pop	{r4, r5, r6, r7}
    25fe:	4770      	bx	lr
      pool_[previous].next_ptr = pool_[current].next_ptr;
    2600:	eb06 0646 	add.w	r6, r6, r6, lsl #1
    2604:	4406      	add	r6, r0
    2606:	78e1      	ldrb	r1, [r4, #3]
    2608:	70f1      	strb	r1, [r6, #3]
    for (uint8_t i = 0; i < size_; ++i) {
    260a:	7807      	ldrb	r7, [r0, #0]
    260c:	b39f      	cbz	r7, 2676 <_ZN9NoteStack7NoteOffEh+0xae>
      if (sorted_ptr_[i] == current) {
    260e:	f890 1023 	ldrb.w	r1, [r0, #35]	; 0x23
    2612:	4291      	cmp	r1, r2
    2614:	bf18      	it	ne
    2616:	2101      	movne	r1, #1
    2618:	d104      	bne.n	2624 <_ZN9NoteStack7NoteOffEh+0x5c>
    261a:	e01c      	b.n	2656 <_ZN9NoteStack7NoteOffEh+0x8e>
    261c:	f896 6022 	ldrb.w	r6, [r6, #34]	; 0x22
    2620:	4296      	cmp	r6, r2
    2622:	d01a      	beq.n	265a <_ZN9NoteStack7NoteOffEh+0x92>
    for (uint8_t i = 0; i < size_; ++i) {
    2624:	b2cc      	uxtb	r4, r1
      if (sorted_ptr_[i] == current) {
    2626:	460d      	mov	r5, r1
    for (uint8_t i = 0; i < size_; ++i) {
    2628:	42bc      	cmp	r4, r7
    262a:	f101 0101 	add.w	r1, r1, #1
    262e:	eb00 0601 	add.w	r6, r0, r1
    2632:	d3f3      	bcc.n	261c <_ZN9NoteStack7NoteOffEh+0x54>
    2634:	3f01      	subs	r7, #1
    2636:	eb03 0343 	add.w	r3, r3, r3, lsl #1
    263a:	4403      	add	r3, r0
    pool_[current].next_ptr = 0;
    263c:	2200      	movs	r2, #0
    pool_[current].note = kFreeSlot;
    263e:	21ff      	movs	r1, #255	; 0xff
    2640:	7059      	strb	r1, [r3, #1]
    pool_[current].next_ptr = 0;
    2642:	70da      	strb	r2, [r3, #3]
    pool_[current].velocity = 0;
    2644:	709a      	strb	r2, [r3, #2]
    --size_;
    2646:	7007      	strb	r7, [r0, #0]
}
    2648:	bcf0      	pop	{r4, r5, r6, r7}
    264a:	4770      	bx	lr
      root_ptr_ = pool_[current].next_ptr;
    264c:	78d2      	ldrb	r2, [r2, #3]
    264e:	f880 2022 	strb.w	r2, [r0, #34]	; 0x22
    2652:	4632      	mov	r2, r6
    2654:	e7d9      	b.n	260a <_ZN9NoteStack7NoteOffEh+0x42>
      if (sorted_ptr_[i] == current) {
    2656:	2500      	movs	r5, #0
    for (uint8_t i = 0; i < size_; ++i) {
    2658:	462c      	mov	r4, r5
        for (uint8_t j = i; j < size_ - 1; ++j) {
    265a:	3f01      	subs	r7, #1
    265c:	42af      	cmp	r7, r5
    265e:	ddea      	ble.n	2636 <_ZN9NoteStack7NoteOffEh+0x6e>
          sorted_ptr_[j] = sorted_ptr_[j + 1];
    2660:	4405      	add	r5, r0
        for (uint8_t j = i; j < size_ - 1; ++j) {
    2662:	3401      	adds	r4, #1
    2664:	b2e4      	uxtb	r4, r4
          sorted_ptr_[j] = sorted_ptr_[j + 1];
    2666:	f895 2024 	ldrb.w	r2, [r5, #36]	; 0x24
    266a:	f885 2023 	strb.w	r2, [r5, #35]	; 0x23
        for (uint8_t j = i; j < size_ - 1; ++j) {
    266e:	42bc      	cmp	r4, r7
    2670:	4625      	mov	r5, r4
    2672:	dbf5      	blt.n	2660 <_ZN9NoteStack7NoteOffEh+0x98>
    2674:	e7df      	b.n	2636 <_ZN9NoteStack7NoteOffEh+0x6e>
    2676:	f04f 37ff 	mov.w	r7, #4294967295	; 0xffffffff
    267a:	e7dc      	b.n	2636 <_ZN9NoteStack7NoteOffEh+0x6e>

0000267c <_ZN9NoteStack6NoteOnEhh>:
void NoteStack::NoteOn(uint8_t note, uint8_t velocity) {
    267c:	e92d 43f8 	stmdb	sp!, {r3, r4, r5, r6, r7, r8, r9, lr}
    2680:	4604      	mov	r4, r0
    2682:	4691      	mov	r9, r2
    2684:	4688      	mov	r8, r1
  NoteOff(note);
    2686:	f7ff ff9f 	bl	25c8 <_ZN9NoteStack7NoteOffEh>
  if (size_ == kNoteStackSize) {
    268a:	7827      	ldrb	r7, [r4, #0]
    268c:	2f0a      	cmp	r7, #10
    268e:	d050      	beq.n	2732 <_ZN9NoteStack6NoteOnEhh+0xb6>
    2690:	4620      	mov	r0, r4
  for (uint8_t i = 1; i <= kNoteStackSize; ++i) {
    2692:	2301      	movs	r3, #1
  uint8_t free_slot = 0;
    2694:	2500      	movs	r5, #0
    if (pool_[i].note == kFreeSlot) {
    2696:	7902      	ldrb	r2, [r0, #4]
  for (uint8_t i = 1; i <= kNoteStackSize; ++i) {
    2698:	1c5e      	adds	r6, r3, #1
    269a:	2aff      	cmp	r2, #255	; 0xff
    269c:	bf08      	it	eq
    269e:	461d      	moveq	r5, r3
    26a0:	b2f3      	uxtb	r3, r6
    26a2:	2b0b      	cmp	r3, #11
    26a4:	f100 0003 	add.w	r0, r0, #3
    26a8:	d1f5      	bne.n	2696 <_ZN9NoteStack6NoteOnEhh+0x1a>
    26aa:	b22b      	sxth	r3, r5
    26ac:	eb03 0343 	add.w	r3, r3, r3, lsl #1
    26b0:	4423      	add	r3, r4
  pool_[free_slot].next_ptr = root_ptr_;
    26b2:	f894 2022 	ldrb.w	r2, [r4, #34]	; 0x22
    26b6:	70da      	strb	r2, [r3, #3]
  pool_[free_slot].note = note;
    26b8:	f883 8001 	strb.w	r8, [r3, #1]
  pool_[free_slot].velocity = velocity;
    26bc:	f883 9002 	strb.w	r9, [r3, #2]
  root_ptr_ = free_slot;
    26c0:	f884 5022 	strb.w	r5, [r4, #34]	; 0x22
  for (uint8_t i = 0; i < size_; ++i) {
    26c4:	b1d7      	cbz	r7, 26fc <_ZN9NoteStack6NoteOnEhh+0x80>
    if (pool_[sorted_ptr_[i]].note > note) {
    26c6:	f894 3023 	ldrb.w	r3, [r4, #35]	; 0x23
    26ca:	eb03 0343 	add.w	r3, r3, r3, lsl #1
    26ce:	4423      	add	r3, r4
    26d0:	785b      	ldrb	r3, [r3, #1]
    26d2:	4543      	cmp	r3, r8
    26d4:	bf98      	it	ls
    26d6:	2301      	movls	r3, #1
    26d8:	d908      	bls.n	26ec <_ZN9NoteStack6NoteOnEhh+0x70>
    26da:	e017      	b.n	270c <_ZN9NoteStack6NoteOnEhh+0x90>
    26dc:	f892 2023 	ldrb.w	r2, [r2, #35]	; 0x23
    26e0:	eb02 0242 	add.w	r2, r2, r2, lsl #1
    26e4:	4422      	add	r2, r4
    26e6:	7852      	ldrb	r2, [r2, #1]
    26e8:	4590      	cmp	r8, r2
    26ea:	d311      	bcc.n	2710 <_ZN9NoteStack6NoteOnEhh+0x94>
  for (uint8_t i = 0; i < size_; ++i) {
    26ec:	b2d8      	uxtb	r0, r3
    26ee:	42b8      	cmp	r0, r7
    26f0:	eb04 0203 	add.w	r2, r4, r3
    if (pool_[sorted_ptr_[i]].note > note) {
    26f4:	4619      	mov	r1, r3
    26f6:	f103 0301 	add.w	r3, r3, #1
  for (uint8_t i = 0; i < size_; ++i) {
    26fa:	d3ef      	bcc.n	26dc <_ZN9NoteStack6NoteOnEhh+0x60>
  if (free_slot) {
    26fc:	b115      	cbz	r5, 2704 <_ZN9NoteStack6NoteOnEhh+0x88>
    sorted_ptr_[size_] = free_slot;
    26fe:	19e3      	adds	r3, r4, r7
    2700:	f883 5023 	strb.w	r5, [r3, #35]	; 0x23
  ++size_;
    2704:	3701      	adds	r7, #1
    2706:	7027      	strb	r7, [r4, #0]
    2708:	e8bd 83f8 	ldmia.w	sp!, {r3, r4, r5, r6, r7, r8, r9, pc}
    if (pool_[sorted_ptr_[i]].note > note) {
    270c:	2100      	movs	r1, #0
  for (uint8_t i = 0; i < size_; ++i) {
    270e:	4608      	mov	r0, r1
    2710:	463b      	mov	r3, r7
        sorted_ptr_[j] = sorted_ptr_[j - 1];
    2712:	18e2      	adds	r2, r4, r3
      for (uint8_t j = size_; j > i; --j) {
    2714:	3b01      	subs	r3, #1
    2716:	b2db      	uxtb	r3, r3
        sorted_ptr_[j] = sorted_ptr_[j - 1];
    2718:	f892 6022 	ldrb.w	r6, [r2, #34]	; 0x22
    271c:	f882 6023 	strb.w	r6, [r2, #35]	; 0x23
      for (uint8_t j = size_; j > i; --j) {
    2720:	4283      	cmp	r3, r0
    2722:	d8f6      	bhi.n	2712 <_ZN9NoteStack6NoteOnEhh+0x96>
      sorted_ptr_[i] = free_slot;
    2724:	4421      	add	r1, r4
  ++size_;
    2726:	3701      	adds	r7, #1
      sorted_ptr_[i] = free_slot;
    2728:	f881 5023 	strb.w	r5, [r1, #35]	; 0x23
  ++size_;
    272c:	7027      	strb	r7, [r4, #0]
    272e:	e8bd 83f8 	ldmia.w	sp!, {r3, r4, r5, r6, r7, r8, r9, pc}
  if (size_ == kNoteStackSize) {
    2732:	2200      	movs	r2, #0
    2734:	4611      	mov	r1, r2
    2736:	4623      	mov	r3, r4
      if (pool_[i].next_ptr == 0) {
    2738:	7998      	ldrb	r0, [r3, #6]
    273a:	3203      	adds	r2, #3
    273c:	b900      	cbnz	r0, 2740 <_ZN9NoteStack6NoteOnEhh+0xc4>
        least_recent_note = pool_[i].note;
    273e:	7919      	ldrb	r1, [r3, #4]
    for (uint8_t i = 1; i <= kNoteStackSize; ++i) {
    2740:	2a1e      	cmp	r2, #30
    2742:	f103 0303 	add.w	r3, r3, #3
    2746:	d1f7      	bne.n	2738 <_ZN9NoteStack6NoteOnEhh+0xbc>
    NoteOff(least_recent_note);
    2748:	4620      	mov	r0, r4
    274a:	f7ff ff3d 	bl	25c8 <_ZN9NoteStack7NoteOffEh>
    274e:	7827      	ldrb	r7, [r4, #0]
    2750:	e79e      	b.n	2690 <_ZN9NoteStack6NoteOnEhh+0x14>
    2752:	bf00      	nop

00002754 <_ZN9NoteStack5ClearEv>:

void NoteStack::Clear() {
    2754:	b538      	push	{r3, r4, r5, lr}
  size_ = 0;
    2756:	2500      	movs	r5, #0
void NoteStack::Clear() {
    2758:	4604      	mov	r4, r0
  memset(pool_ + 1, 0, sizeof(NoteEntry) * kNoteStackSize);
    275a:	4629      	mov	r1, r5
    275c:	221e      	movs	r2, #30
  size_ = 0;
    275e:	f800 5b04 	strb.w	r5, [r0], #4
  memset(pool_ + 1, 0, sizeof(NoteEntry) * kNoteStackSize);
    2762:	f00b fd83 	bl	e26c <memset>
  memset(sorted_ptr_ + 1, 0, kNoteStackSize);
    2766:	f884 5024 	strb.w	r5, [r4, #36]	; 0x24
    276a:	f884 5025 	strb.w	r5, [r4, #37]	; 0x25
    276e:	f884 5026 	strb.w	r5, [r4, #38]	; 0x26
    2772:	f884 5027 	strb.w	r5, [r4, #39]	; 0x27
    2776:	f884 5028 	strb.w	r5, [r4, #40]	; 0x28
    277a:	f884 5029 	strb.w	r5, [r4, #41]	; 0x29
    277e:	f884 502a 	strb.w	r5, [r4, #42]	; 0x2a
    2782:	f884 502b 	strb.w	r5, [r4, #43]	; 0x2b
    2786:	f884 502c 	strb.w	r5, [r4, #44]	; 0x2c
    278a:	f884 502d 	strb.w	r5, [r4, #45]	; 0x2d
  root_ptr_ = 0;
    278e:	f884 5022 	strb.w	r5, [r4, #34]	; 0x22
    2792:	4629      	mov	r1, r5
  for (uint8_t i = 0; i <= kNoteStackSize; ++i) {
    pool_[i].note = kFreeSlot;
    2794:	22ff      	movs	r2, #255	; 0xff
    2796:	1863      	adds	r3, r4, r1
    2798:	3103      	adds	r1, #3
  for (uint8_t i = 0; i <= kNoteStackSize; ++i) {
    279a:	2921      	cmp	r1, #33	; 0x21
    pool_[i].note = kFreeSlot;
    279c:	705a      	strb	r2, [r3, #1]
  for (uint8_t i = 0; i <= kNoteStackSize; ++i) {
    279e:	d1fa      	bne.n	2796 <_ZN9NoteStack5ClearEv+0x42>
  }
}
    27a0:	bd38      	pop	{r3, r4, r5, pc}
    27a2:	bf00      	nop

000027a4 <_Z17midi_handle_clockv>:
  usbMIDI.setHandleNoteOn(midi_note_on);
  usbMIDI.setHandleNoteOff(midi_note_off);
}

void midi_handle_clock() {
  midi_clock++;
    27a4:	4b02      	ldr	r3, [pc, #8]	; (27b0 <_Z17midi_handle_clockv+0xc>)
    27a6:	681a      	ldr	r2, [r3, #0]
    27a8:	3201      	adds	r2, #1
    27aa:	601a      	str	r2, [r3, #0]
    27ac:	4770      	bx	lr
    27ae:	bf00      	nop
    27b0:	20001a74 	.word	0x20001a74

000027b4 <_Z21sequencer_reset_clockv>:
  sequencer_is_running = true;
  sequencer_clock = 0;
}

void sequencer_reset_clock() {
  sequencer_clock -= (sequencer_clock%12);
    27b4:	4b05      	ldr	r3, [pc, #20]	; (27cc <_Z21sequencer_reset_clockv+0x18>)
    27b6:	4a06      	ldr	r2, [pc, #24]	; (27d0 <_Z21sequencer_reset_clockv+0x1c>)
    27b8:	7819      	ldrb	r1, [r3, #0]
    27ba:	fba2 0201 	umull	r0, r2, r2, r1
    27be:	08d2      	lsrs	r2, r2, #3
    27c0:	eb02 0242 	add.w	r2, r2, r2, lsl #1
    27c4:	0092      	lsls	r2, r2, #2
    27c6:	701a      	strb	r2, [r3, #0]
    27c8:	4770      	bx	lr
    27ca:	bf00      	nop
    27cc:	200023d0 	.word	0x200023d0
    27d0:	aaaaaaab 	.word	0xaaaaaaab

000027d4 <_ZN14CLEDController4sizeEv>:
            memset8((void*)m_Data, 0, sizeof(struct CRGB) * m_nLeds);
        }
    }

    /// How many leds does this controller manage?
    virtual int size() { return m_nLeds; }
    27d4:	6940      	ldr	r0, [r0, #20]
    27d6:	4770      	bx	lr

000027d8 <_ZN14CLEDController9clearLedsEi>:
	virtual void clearLeds(int nLeds) { showColor(CRGB::Black, nLeds, CRGB::Black); }
    27d8:	b510      	push	{r4, lr}
    27da:	b082      	sub	sp, #8
    {
    }

    /// allow construction from 32-bit (really 24-bit) bit 0xRRGGBB color code
    inline CRGB( uint32_t colorcode)  __attribute__((always_inline))
    : r((colorcode >> 16) & 0xFF), g((colorcode >> 8) & 0xFF), b((colorcode >> 0) & 0xFF)
    27dc:	2300      	movs	r3, #0
        showColor(data, nLeds, getAdjustment(brightness));
    27de:	6804      	ldr	r4, [r0, #0]
    27e0:	f88d 3000 	strb.w	r3, [sp]
    27e4:	f88d 3001 	strb.w	r3, [sp, #1]
    27e8:	f88d 3002 	strb.w	r3, [sp, #2]
    27ec:	6824      	ldr	r4, [r4, #0]
        : r(ir), g(ig), b(ib)
    27ee:	f88d 3004 	strb.w	r3, [sp, #4]
	virtual void clearLeds(int nLeds) { showColor(CRGB::Black, nLeds, CRGB::Black); }
    27f2:	460a      	mov	r2, r1
    27f4:	f88d 3005 	strb.w	r3, [sp, #5]
    27f8:	f88d 3006 	strb.w	r3, [sp, #6]
        showColor(data, nLeds, getAdjustment(brightness));
    27fc:	4669      	mov	r1, sp
    27fe:	ab01      	add	r3, sp, #4
    2800:	47a0      	blx	r4
	virtual void clearLeds(int nLeds) { showColor(CRGB::Black, nLeds, CRGB::Black); }
    2802:	b002      	add	sp, #8
    2804:	bd10      	pop	{r4, pc}
    2806:	bf00      	nop

00002808 <_ZNK19ClocklessControllerILi32ELi22ELi22ELi44EL6EOrder66ELi0ELb0ELi50EE17getMaxRefreshRateEv>:
		FastPin<DATA_PIN>::setOutput();
		mPinMask = FastPin<DATA_PIN>::mask();
		mPort = FastPin<DATA_PIN>::port();
	}

	virtual uint16_t getMaxRefreshRate() const { return 400; }
    2808:	f44f 70c8 	mov.w	r0, #400	; 0x190
    280c:	4770      	bx	lr
    280e:	bf00      	nop

00002810 <_ZN4midi13MidiInterfaceI14HardwareSerialNS_15DefaultSettingsEED1Ev>:
 This is not really useful for the Arduino, as it is never called...
 */
template<class SerialPort, class Settings>
inline MidiInterface<SerialPort, Settings>::~MidiInterface()
{
}
    2810:	4770      	bx	lr
    2812:	bf00      	nop

00002814 <_ZN19ClocklessControllerILi32ELi22ELi22ELi44EL6EOrder66ELi0ELb0ELi50EE4initEv>:
	virtual void init() {
    2814:	b510      	push	{r4, lr}
template<uint8_t PIN, uint32_t _MASK, typename _PDOR, typename _PSOR, typename _PCOR, typename _PTOR, typename _PDIR, typename _PDDR> class _ARMPIN {
public:
	typedef volatile uint32_t * port_ptr_t;
	typedef uint32_t port_t;

	inline static void setOutput() { pinMode(PIN, OUTPUT); } // TODO: perform MUX config { _PDDR::r() |= _MASK; }
    2816:	2101      	movs	r1, #1
    2818:	4604      	mov	r4, r0
    281a:	2020      	movs	r0, #32
    281c:	f004 fbc2 	bl	6fa4 <pinMode>
		mPinMask = FastPin<DATA_PIN>::mask();
    2820:	f44f 2280 	mov.w	r2, #262144	; 0x40000
		mPort = FastPin<DATA_PIN>::port();
    2824:	4b01      	ldr	r3, [pc, #4]	; (282c <_ZN19ClocklessControllerILi32ELi22ELi22ELi44EL6EOrder66ELi0ELb0ELi50EE4initEv+0x18>)
		mPinMask = FastPin<DATA_PIN>::mask();
    2826:	61a2      	str	r2, [r4, #24]
		mPort = FastPin<DATA_PIN>::port();
    2828:	61e3      	str	r3, [r4, #28]
    282a:	bd10      	pop	{r4, pc}
    282c:	400ff040 	.word	0x400ff040

00002830 <_Z12midi_note_onhhh>:
  }
  return MIDI_NOTE_FREQUENCY[x];
}

void midi_note_on(uint8_t channel, uint8_t note, uint8_t velocity) {
  if(channel == MIDI_CHANNEL) {
    2830:	2801      	cmp	r0, #1
    2832:	d000      	beq.n	2836 <_Z12midi_note_onhhh+0x6>
    2834:	4770      	bx	lr
    note_stack.NoteOn(note, velocity);
    2836:	4801      	ldr	r0, [pc, #4]	; (283c <_Z12midi_note_onhhh+0xc>)
    2838:	f7ff bf20 	b.w	267c <_ZN9NoteStack6NoteOnEhh>
    283c:	20001d6c 	.word	0x20001d6c

00002840 <_Z13midi_note_offhhh>:
  }
}

void midi_note_off(uint8_t channel, uint8_t note, uint8_t velocity) {
  if(channel == MIDI_CHANNEL) {
    2840:	2801      	cmp	r0, #1
    2842:	d000      	beq.n	2846 <_Z13midi_note_offhhh+0x6>
    2844:	4770      	bx	lr
    note_stack.NoteOff(note);
    2846:	4801      	ldr	r0, [pc, #4]	; (284c <_Z13midi_note_offhhh+0xc>)
    2848:	f7ff bebe 	b.w	25c8 <_ZN9NoteStack7NoteOffEh>
    284c:	20001d6c 	.word	0x20001d6c

00002850 <_ZN25AudioEffectCustomEnvelope6updateEv>:
	void decay(int milliseconds);
	void sustain(float level);
	void release(int milliseconds);

	using AudioStream::release;
        virtual void update(void) {
    2850:	e92d 4ff0 	stmdb	sp!, {r4, r5, r6, r7, r8, r9, sl, fp, lr}
          audio_block_t *block;
          uint32_t *p, *end;
          uint32_t sample12, sample34, sample56, sample78, tmp1, tmp2;


          block = receiveWritable();
    2854:	2100      	movs	r1, #0
        virtual void update(void) {
    2856:	b083      	sub	sp, #12
    2858:	4605      	mov	r5, r0
          block = receiveWritable();
    285a:	f007 f85b 	bl	9914 <_ZN11AudioStream15receiveWritableEj>
          if (!block) return;
    285e:	4682      	mov	sl, r0
    2860:	2800      	cmp	r0, #0
    2862:	f000 80b7 	beq.w	29d4 <_ZN25AudioEffectCustomEnvelope6updateEv+0x184>
          p = (uint32_t *)(block->data);
    2866:	1d04      	adds	r4, r0, #4
          end = p + AUDIO_BLOCK_SAMPLES/2;
    2868:	f500 7b82 	add.w	fp, r0, #260	; 0x104


          while (p < end) {
    286c:	455c      	cmp	r4, fp
    286e:	d25e      	bcs.n	292e <_ZN25AudioEffectCustomEnvelope6updateEv+0xde>
    2870:	f100 0614 	add.w	r6, r0, #20
          curInc = conf.decayRate;
          curVal += curInc*pieceSize;
          if(curVal <= conf.sustainLevel){
            curVal = conf.sustainLevel;
            curInc = Config::calcRate(curVal-oldVal, pieceSize);
            state = Sustain;
    2874:	f04f 0903 	mov.w	r9, #3
            state = Decay;
    2878:	f04f 0802 	mov.w	r8, #2
      switch(state){
    287c:	7f2b      	ldrb	r3, [r5, #28]
            // process 8 samples
            int v = env.curVal;
    287e:	6aaf      	ldr	r7, [r5, #40]	; 0x28
    2880:	2b04      	cmp	r3, #4
    2882:	f200 8086 	bhi.w	2992 <_ZN25AudioEffectCustomEnvelope6updateEv+0x142>
    2886:	e8df f003 	tbb	[pc, r3]
    288a:	5d84      	.short	0x5d84
    288c:	8403      	.short	0x8403
    288e:	7c          	.byte	0x7c
    288f:	00          	.byte	0x00
          curInc = conf.decayRate;
    2890:	6b28      	ldr	r0, [r5, #48]	; 0x30
          curVal += curInc*pieceSize;
    2892:	6a6a      	ldr	r2, [r5, #36]	; 0x24
          if(curVal <= conf.sustainLevel){
    2894:	6ba9      	ldr	r1, [r5, #56]	; 0x38
          curVal += curInc*pieceSize;
    2896:	fb02 7300 	mla	r3, r2, r0, r7
          if(curVal <= conf.sustainLevel){
    289a:	428b      	cmp	r3, r1
          curVal += curInc*pieceSize;
    289c:	62ab      	str	r3, [r5, #40]	; 0x28
          if(curVal <= conf.sustainLevel){
    289e:	dc16      	bgt.n	28ce <_ZN25AudioEffectCustomEnvelope6updateEv+0x7e>
      int decayRate = 0;
      int releaseRate = 0;
      int sustainLevel = 0;

      static inline int calcRate(int val, int time) {
        if(time > 0){
    28a0:	2a00      	cmp	r2, #0
            curVal = conf.sustainLevel;
    28a2:	62a9      	str	r1, [r5, #40]	; 0x28
        if(time > 0){
    28a4:	f340 8092 	ble.w	29cc <_ZN25AudioEffectCustomEnvelope6updateEv+0x17c>
          return static_cast<int>(static_cast<float>(val)/time);
    28a8:	1bc8      	subs	r0, r1, r7
    28aa:	9201      	str	r2, [sp, #4]
    28ac:	f00a fbe2 	bl	d074 <__aeabi_i2f>
    28b0:	9a01      	ldr	r2, [sp, #4]
    28b2:	4603      	mov	r3, r0
    28b4:	4610      	mov	r0, r2
    28b6:	9301      	str	r3, [sp, #4]
    28b8:	f00a fbdc 	bl	d074 <__aeabi_i2f>
    28bc:	9b01      	ldr	r3, [sp, #4]
    28be:	4601      	mov	r1, r0
    28c0:	4618      	mov	r0, r3
    28c2:	f00a fcdf 	bl	d284 <__aeabi_fdiv>
    28c6:	f00a fdef 	bl	d4a8 <__aeabi_f2iz>
            state = Sustain;
    28ca:	f885 901c 	strb.w	r9, [r5, #28]
            int inc = env.step();
            sample12 = *p++;
            sample34 = *p++;
            sample56 = *p++;
            sample78 = *p++;
    28ce:	1d21      	adds	r1, r4, #4
            sample12 = *p++;
    28d0:	f856 ec10 	ldr.w	lr, [r6, #-16]
            sample78 = *p++;
    28d4:	c90e      	ldmia	r1, {r1, r2, r3}
static inline int32_t signed_multiply_32x16b(int32_t a, uint32_t b) __attribute__((always_inline, unused));
static inline int32_t signed_multiply_32x16b(int32_t a, uint32_t b)
{
#if defined(KINETISK)
	int32_t out;
	asm volatile("smulwb %0, %1, %2" : "=r" (out) : "r" (a), "r" (b));
    28d6:	fb37 fc0e 	smulwb	ip, r7, lr
            p -= 4;
            tmp1 = signed_multiply_32x16b(v, sample12);
            v+=inc;
    28da:	4407      	add	r7, r0
static inline int32_t signed_multiply_32x16t(int32_t a, uint32_t b) __attribute__((always_inline, unused));
static inline int32_t signed_multiply_32x16t(int32_t a, uint32_t b)
{
#if defined(KINETISK)
	int32_t out;
	asm volatile("smulwt %0, %1, %2" : "=r" (out) : "r" (a), "r" (b));
    28dc:	fb37 fe1e 	smulwt	lr, r7, lr
            tmp2 = signed_multiply_32x16t(v, sample12);
            v+=inc;
    28e0:	4407      	add	r7, r0
static inline uint32_t pack_16b_16b(int32_t a, int32_t b) __attribute__((always_inline, unused));
static inline uint32_t pack_16b_16b(int32_t a, int32_t b)
{
#if defined(KINETISK)
	int32_t out;
	asm volatile("pkhbt %0, %1, %2, lsl #16" : "=r" (out) : "r" (b), "r" (a));
    28e2:	eacc 4e0e 	pkhbt	lr, ip, lr, lsl #16
	asm volatile("smulwb %0, %1, %2" : "=r" (out) : "r" (a), "r" (b));
    28e6:	fb37 fc01 	smulwb	ip, r7, r1
            sample12 = pack_16b_16b(tmp2, tmp1);

            tmp1 = signed_multiply_32x16b(v, sample34);
            v+=inc;
    28ea:	4407      	add	r7, r0
	asm volatile("smulwt %0, %1, %2" : "=r" (out) : "r" (a), "r" (b));
    28ec:	fb37 f111 	smulwt	r1, r7, r1
            tmp2 = signed_multiply_32x16t(v, sample34);
            v+=inc;
    28f0:	4407      	add	r7, r0
	asm volatile("pkhbt %0, %1, %2, lsl #16" : "=r" (out) : "r" (b), "r" (a));
    28f2:	eacc 4101 	pkhbt	r1, ip, r1, lsl #16
	asm volatile("smulwb %0, %1, %2" : "=r" (out) : "r" (a), "r" (b));
    28f6:	fb37 fc02 	smulwb	ip, r7, r2
            sample34 = pack_16b_16b(tmp2, tmp1);
            tmp1 = signed_multiply_32x16b(v, sample56);
            v+=inc;
    28fa:	4407      	add	r7, r0
	asm volatile("smulwt %0, %1, %2" : "=r" (out) : "r" (a), "r" (b));
    28fc:	fb37 f212 	smulwt	r2, r7, r2
            tmp2 = signed_multiply_32x16t(v, sample56);
            v+=inc;
    2900:	4407      	add	r7, r0
	asm volatile("pkhbt %0, %1, %2, lsl #16" : "=r" (out) : "r" (b), "r" (a));
    2902:	eacc 4202 	pkhbt	r2, ip, r2, lsl #16
	asm volatile("smulwb %0, %1, %2" : "=r" (out) : "r" (a), "r" (b));
    2906:	fb37 fc03 	smulwb	ip, r7, r3
            sample56 = pack_16b_16b(tmp2, tmp1);
            tmp1 = signed_multiply_32x16b(v, sample78);
            v+=inc;
    290a:	4407      	add	r7, r0
	asm volatile("smulwt %0, %1, %2" : "=r" (out) : "r" (a), "r" (b));
    290c:	fb37 f313 	smulwt	r3, r7, r3
	asm volatile("pkhbt %0, %1, %2, lsl #16" : "=r" (out) : "r" (b), "r" (a));
    2910:	eacc 4303 	pkhbt	r3, ip, r3, lsl #16
            tmp2 = signed_multiply_32x16t(v, sample78);
            v+=inc;
            sample78 = pack_16b_16b(tmp2, tmp1);
            *p++ = sample12;
    2914:	f846 ec10 	str.w	lr, [r6, #-16]
    2918:	3410      	adds	r4, #16
            *p++ = sample34;
    291a:	f844 1c0c 	str.w	r1, [r4, #-12]
            *p++ = sample56;
    291e:	f844 2c08 	str.w	r2, [r4, #-8]
            *p++ = sample78;
    2922:	f844 3c04 	str.w	r3, [r4, #-4]
          while (p < end) {
    2926:	45a3      	cmp	fp, r4
    2928:	f106 0610 	add.w	r6, r6, #16
    292c:	d8a6      	bhi.n	287c <_ZN25AudioEffectCustomEnvelope6updateEv+0x2c>

          }
          transmit(block);
    292e:	4628      	mov	r0, r5
    2930:	4651      	mov	r1, sl
    2932:	2200      	movs	r2, #0
    2934:	f006 ffc8 	bl	98c8 <_ZN11AudioStream8transmitEP18audio_block_structh>
          release(block);
    2938:	4650      	mov	r0, sl
        }
    293a:	b003      	add	sp, #12
    293c:	e8bd 4ff0 	ldmia.w	sp!, {r4, r5, r6, r7, r8, r9, sl, fp, lr}
          release(block);
    2940:	f006 bf9e 	b.w	9880 <_ZN11AudioStream7releaseEP18audio_block_struct>
          curInc = conf.attackRate;
    2944:	6ae8      	ldr	r0, [r5, #44]	; 0x2c
          curVal += curInc*pieceSize;
    2946:	6a6a      	ldr	r2, [r5, #36]	; 0x24
          if(curVal >= maxValue){
    2948:	6a29      	ldr	r1, [r5, #32]
          curVal += curInc*pieceSize;
    294a:	fb02 7300 	mla	r3, r2, r0, r7
          if(curVal >= maxValue){
    294e:	428b      	cmp	r3, r1
          curVal += curInc*pieceSize;
    2950:	62ab      	str	r3, [r5, #40]	; 0x28
          if(curVal >= maxValue){
    2952:	dbbc      	blt.n	28ce <_ZN25AudioEffectCustomEnvelope6updateEv+0x7e>
        if(time > 0){
    2954:	2a00      	cmp	r2, #0
            curVal = maxValue;
    2956:	62a9      	str	r1, [r5, #40]	; 0x28
        if(time > 0){
    2958:	dd36      	ble.n	29c8 <_ZN25AudioEffectCustomEnvelope6updateEv+0x178>
          return static_cast<int>(static_cast<float>(val)/time);
    295a:	1bc8      	subs	r0, r1, r7
    295c:	9201      	str	r2, [sp, #4]
    295e:	f00a fb89 	bl	d074 <__aeabi_i2f>
    2962:	9a01      	ldr	r2, [sp, #4]
    2964:	4603      	mov	r3, r0
    2966:	4610      	mov	r0, r2
    2968:	9301      	str	r3, [sp, #4]
    296a:	f00a fb83 	bl	d074 <__aeabi_i2f>
    296e:	9b01      	ldr	r3, [sp, #4]
    2970:	4601      	mov	r1, r0
    2972:	4618      	mov	r0, r3
    2974:	f00a fc86 	bl	d284 <__aeabi_fdiv>
    2978:	f00a fd96 	bl	d4a8 <__aeabi_f2iz>
            state = Decay;
    297c:	f885 801c 	strb.w	r8, [r5, #28]
    2980:	e7a5      	b.n	28ce <_ZN25AudioEffectCustomEnvelope6updateEv+0x7e>
          curInc = conf.releaseRate;
    2982:	6b68      	ldr	r0, [r5, #52]	; 0x34
          curVal += curInc*pieceSize;
    2984:	6a6a      	ldr	r2, [r5, #36]	; 0x24
    2986:	fb02 7300 	mla	r3, r2, r0, r7
          if(curVal <= 0){
    298a:	2b00      	cmp	r3, #0
    298c:	dd03      	ble.n	2996 <_ZN25AudioEffectCustomEnvelope6updateEv+0x146>
          curVal += curInc*pieceSize;
    298e:	62ab      	str	r3, [r5, #40]	; 0x28
    2990:	e79d      	b.n	28ce <_ZN25AudioEffectCustomEnvelope6updateEv+0x7e>
      switch(state){
    2992:	2000      	movs	r0, #0
    2994:	e79b      	b.n	28ce <_ZN25AudioEffectCustomEnvelope6updateEv+0x7e>
            curVal = 0;
    2996:	2300      	movs	r3, #0
        if(time > 0){
    2998:	429a      	cmp	r2, r3
            curVal = 0;
    299a:	62ab      	str	r3, [r5, #40]	; 0x28
        if(time > 0){
    299c:	dd18      	ble.n	29d0 <_ZN25AudioEffectCustomEnvelope6updateEv+0x180>
          return static_cast<int>(static_cast<float>(val)/time);
    299e:	4638      	mov	r0, r7
    29a0:	9201      	str	r2, [sp, #4]
    29a2:	f00a fb67 	bl	d074 <__aeabi_i2f>
    29a6:	9a01      	ldr	r2, [sp, #4]
    29a8:	4603      	mov	r3, r0
    29aa:	4610      	mov	r0, r2
    29ac:	9301      	str	r3, [sp, #4]
    29ae:	f00a fb61 	bl	d074 <__aeabi_i2f>
    29b2:	9b01      	ldr	r3, [sp, #4]
    29b4:	4601      	mov	r1, r0
    29b6:	4618      	mov	r0, r3
    29b8:	f00a fc64 	bl	d284 <__aeabi_fdiv>
    29bc:	f00a fd74 	bl	d4a8 <__aeabi_f2iz>
            state = Idle;
    29c0:	f04f 0200 	mov.w	r2, #0
    29c4:	772a      	strb	r2, [r5, #28]
    29c6:	e782      	b.n	28ce <_ZN25AudioEffectCustomEnvelope6updateEv+0x7e>
        }else{
          return 0;
    29c8:	2000      	movs	r0, #0
    29ca:	e7d7      	b.n	297c <_ZN25AudioEffectCustomEnvelope6updateEv+0x12c>
    29cc:	2000      	movs	r0, #0
    29ce:	e77c      	b.n	28ca <_ZN25AudioEffectCustomEnvelope6updateEv+0x7a>
    29d0:	2000      	movs	r0, #0
    29d2:	e7f5      	b.n	29c0 <_ZN25AudioEffectCustomEnvelope6updateEv+0x170>
        }
    29d4:	b003      	add	sp, #12
    29d6:	e8bd 8ff0 	ldmia.w	sp!, {r4, r5, r6, r7, r8, r9, sl, fp, pc}
    29da:	bf00      	nop

000029dc <_Z10amp_enablev.part.35>:
  AudioInterrupts();
  amp_enable();
  power_flag = 1;
}

void amp_enable() {
    29dc:	b508      	push	{r3, lr}
  if(amp_enabled == 0) {
    pinMode(AMP_ENABLE, OUTPUT);
    29de:	2006      	movs	r0, #6
    29e0:	2101      	movs	r1, #1
    29e2:	f004 fadf 	bl	6fa4 <pinMode>
    digitalWrite(AMP_ENABLE, LOW);
    29e6:	2006      	movs	r0, #6
    29e8:	2100      	movs	r1, #0
    29ea:	f004 fac7 	bl	6f7c <digitalWrite>
    amp_enabled = 1;
    29ee:	4b02      	ldr	r3, [pc, #8]	; (29f8 <_Z10amp_enablev.part.35+0x1c>)
    29f0:	2201      	movs	r2, #1
    29f2:	701a      	strb	r2, [r3, #0]
    29f4:	bd08      	pop	{r3, pc}
    29f6:	bf00      	nop
    29f8:	20001884 	.word	0x20001884

000029fc <_Z11amp_disablev.part.36>:
  }
}

void amp_disable() {
    29fc:	b508      	push	{r3, lr}
  if(amp_enabled == 1) {
    pinMode(AMP_ENABLE, INPUT);
    29fe:	2006      	movs	r0, #6
    2a00:	2100      	movs	r1, #0
    2a02:	f004 facf 	bl	6fa4 <pinMode>
    amp_enabled = 0;
    2a06:	4b02      	ldr	r3, [pc, #8]	; (2a10 <_Z11amp_disablev.part.36+0x14>)
    2a08:	2200      	movs	r2, #0
    2a0a:	701a      	strb	r2, [r3, #0]
    2a0c:	bd08      	pop	{r3, pc}
    2a0e:	bf00      	nop
    2a10:	20001884 	.word	0x20001884

00002a14 <_Z17sequencer_restartv>:
void sequencer_restart() {
    2a14:	b508      	push	{r3, lr}
        case Start:
        case Stop:
        case Continue:
        case ActiveSensing:
        case SystemReset:
            mSerial.write((byte)inType);
    2a16:	4b0d      	ldr	r3, [pc, #52]	; (2a4c <_Z17sequencer_restartv+0x38>)
    2a18:	6c98      	ldr	r0, [r3, #72]	; 0x48
    2a1a:	6803      	ldr	r3, [r0, #0]
    2a1c:	21fa      	movs	r1, #250	; 0xfa
    2a1e:	681b      	ldr	r3, [r3, #0]
    2a20:	4798      	blx	r3
  tempo_handler.midi_clock_reset();
    2a22:	4b0b      	ldr	r3, [pc, #44]	; (2a50 <_Z17sequencer_restartv+0x3c>)
  current_step = SEQUENCER_NUM_STEPS - 1;
    2a24:	490b      	ldr	r1, [pc, #44]	; (2a54 <_Z17sequencer_restartv+0x40>)
          update_sync();
          break;
      }
    }
    void midi_clock_reset() {
      if(_source == TEMPO_SOURCE_MIDI) {
    2a26:	7b1a      	ldrb	r2, [r3, #12]
    2a28:	2007      	movs	r0, #7
    2a2a:	2a01      	cmp	r2, #1
    2a2c:	7008      	strb	r0, [r1, #0]
    2a2e:	d105      	bne.n	2a3c <_Z17sequencer_restartv+0x28>
        _midi_clock_block = 0;
        midi_clock = 11; // One less than our overflow, so the next MIDI clock tick triggers a callback
    2a30:	4909      	ldr	r1, [pc, #36]	; (2a58 <_Z17sequencer_restartv+0x44>)
    2a32:	200b      	movs	r0, #11
        _midi_clock_block = 0;
    2a34:	2200      	movs	r2, #0
        midi_clock = 11; // One less than our overflow, so the next MIDI clock tick triggers a callback
    2a36:	6008      	str	r0, [r1, #0]
        _midi_clock_block = 0;
    2a38:	f883 2022 	strb.w	r2, [r3, #34]	; 0x22
  sequencer_clock = 0;
    2a3c:	4b07      	ldr	r3, [pc, #28]	; (2a5c <_Z17sequencer_restartv+0x48>)
  sequencer_is_running = true;
    2a3e:	4908      	ldr	r1, [pc, #32]	; (2a60 <_Z17sequencer_restartv+0x4c>)
  sequencer_clock = 0;
    2a40:	2200      	movs	r2, #0
  sequencer_is_running = true;
    2a42:	2001      	movs	r0, #1
  sequencer_clock = 0;
    2a44:	701a      	strb	r2, [r3, #0]
  sequencer_is_running = true;
    2a46:	7008      	strb	r0, [r1, #0]
  sequencer_clock = 0;
    2a48:	bd08      	pop	{r3, pc}
    2a4a:	bf00      	nop
    2a4c:	2000209c 	.word	0x2000209c
    2a50:	20001cc0 	.word	0x20001cc0
    2a54:	20001d44 	.word	0x20001d44
    2a58:	20001a74 	.word	0x20001a74
    2a5c:	200023d0 	.word	0x200023d0
    2a60:	20002369 	.word	0x20002369

00002a64 <_ZN19CPixelLEDControllerIL6EOrder66ELi1ELm4294967295EE4showEPK4CRGBiS2_>:

/// write the passed in rgb data out to the leds managed by this controller
///@param data the rgb data to write out to the strip
///@param nLeds the number of leds being written out
///@param scale the rgb scaling to apply to each led before writing it out
  virtual void show(const struct CRGB *data, int nLeds, CRGB scale) {
    2a64:	b5f0      	push	{r4, r5, r6, r7, lr}
    PixelController<RGB_ORDER, LANES, MASK> pixels(data, nLeds, scale, getDither());
    2a66:	7c85      	ldrb	r5, [r0, #18]
    }

    /// allow copy construction
	inline CRGB(const CRGB& rhs) __attribute__((always_inline))
    {
        r = rhs.r;
    2a68:	781c      	ldrb	r4, [r3, #0]
        g = rhs.g;
    2a6a:	785e      	ldrb	r6, [r3, #1]
        b = rhs.b;
    2a6c:	789b      	ldrb	r3, [r3, #2]
  virtual void show(const struct CRGB *data, int nLeds, CRGB scale) {
    2a6e:	b089      	sub	sp, #36	; 0x24
            switch(dither) {
    2a70:	2d01      	cmp	r5, #1
        PixelController(const CRGB *d, int len, CRGB & s, EDitherMode dither = BINARY_DITHER) : mData((const uint8_t*)d), mLen(len), mLenRemaining(len), mScale(s) {
    2a72:	9101      	str	r1, [sp, #4]
    2a74:	9202      	str	r2, [sp, #8]
    2a76:	9203      	str	r2, [sp, #12]
        r = rhs.r;
    2a78:	f88d 4016 	strb.w	r4, [sp, #22]
        g = rhs.g;
    2a7c:	f88d 6017 	strb.w	r6, [sp, #23]
        b = rhs.b;
    2a80:	f88d 3018 	strb.w	r3, [sp, #24]
            switch(dither) {
    2a84:	d017      	beq.n	2ab6 <_ZN19CPixelLEDControllerIL6EOrder66ELi1ELm4294967295EE4showEPK4CRGBiS2_+0x52>
                default: d[0]=d[1]=d[2]=e[0]=e[1]=e[2]=0; break;
    2a86:	2300      	movs	r3, #0
    2a88:	f88d 3015 	strb.w	r3, [sp, #21]
    2a8c:	f88d 3014 	strb.w	r3, [sp, #20]
    2a90:	f88d 3013 	strb.w	r3, [sp, #19]
    2a94:	f88d 3012 	strb.w	r3, [sp, #18]
    2a98:	f88d 3011 	strb.w	r3, [sp, #17]
    2a9c:	f88d 3010 	strb.w	r3, [sp, #16]
    2aa0:	a901      	add	r1, sp, #4
    showPixels(pixels);
    2aa2:	6803      	ldr	r3, [r0, #0]
            mOffsets[i] = nOffset;
    2aa4:	2200      	movs	r2, #0
            mAdvance = 3;
    2aa6:	2403      	movs	r4, #3
    showPixels(pixels);
    2aa8:	699b      	ldr	r3, [r3, #24]
            mAdvance = 3;
    2aaa:	f88d 4019 	strb.w	r4, [sp, #25]
            mOffsets[i] = nOffset;
    2aae:	9207      	str	r2, [sp, #28]
    showPixels(pixels);
    2ab0:	4798      	blx	r3
  }
    2ab2:	b009      	add	sp, #36	; 0x24
    2ab4:	bdf0      	pop	{r4, r5, r6, r7, pc}
            R++;
    2ab6:	4a1f      	ldr	r2, [pc, #124]	; (2b34 <_ZN19CPixelLEDControllerIL6EOrder66ELi1ELm4294967295EE4showEPK4CRGBiS2_+0xd0>)
    2ab8:	7813      	ldrb	r3, [r2, #0]
    2aba:	3301      	adds	r3, #1
            R &= (0x01 << ditherBits) - 1;
    2abc:	f003 0307 	and.w	r3, r3, #7
            byte Q = 0;
    2ac0:	f013 0f01 	tst.w	r3, #1
    2ac4:	bf14      	ite	ne
    2ac6:	2780      	movne	r7, #128	; 0x80
    2ac8:	2700      	moveq	r7, #0
            R &= (0x01 << ditherBits) - 1;
    2aca:	7013      	strb	r3, [r2, #0]
                if(R & 0x02) { Q |= 0x40; }
    2acc:	079a      	lsls	r2, r3, #30
    2ace:	bf44      	itt	mi
    2ad0:	f047 0740 	orrmi.w	r7, r7, #64	; 0x40
    2ad4:	b2ff      	uxtbmi	r7, r7
                if(R & 0x04) { Q |= 0x20; }
    2ad6:	075b      	lsls	r3, r3, #29
    2ad8:	bf48      	it	mi
    2ada:	f047 0720 	orrmi.w	r7, r7, #32
                Q += 0x01 << (7 - ditherBits);
    2ade:	3710      	adds	r7, #16
    2ae0:	a901      	add	r1, sp, #4
    2ae2:	b2ff      	uxtb	r7, r7
    2ae4:	460b      	mov	r3, r1
            for(int i = 0; i < 3; i++) {
    2ae6:	2500      	movs	r5, #0
                    e[i] = s ? (256/s) + 1 : 0;
    2ae8:	f44f 7e80 	mov.w	lr, #256	; 0x100
    2aec:	b1bc      	cbz	r4, 2b1e <_ZN19CPixelLEDControllerIL6EOrder66ELi1ELm4294967295EE4showEPK4CRGBiS2_+0xba>
    2aee:	fb9e f4f4 	sdiv	r4, lr, r4
    2af2:	3401      	adds	r4, #1
    2af4:	b2e4      	uxtb	r4, r4
    2af6:	1c62      	adds	r2, r4, #1
///  4 clocks AVR with MUL, 2 clocks ARM
LIB8STATIC_ALWAYS_INLINE uint8_t scale8( uint8_t i, fract8 scale)
{
#if SCALE8_C == 1
#if (FASTLED_SCALE8_FIXED == 1)
    return (((uint16_t)i) * (1+(uint16_t)(scale))) >> 8;
    2af8:	fb07 f202 	mul.w	r2, r7, r2
    2afc:	f3c2 2207 	ubfx	r2, r2, #8, #8
                    if(d[i]) (d[i]--);
    2b00:	1e56      	subs	r6, r2, #1
                    e[i] = s ? (256/s) + 1 : 0;
    2b02:	73dc      	strb	r4, [r3, #15]
                    if(d[i]) (d[i]--);
    2b04:	b9a2      	cbnz	r2, 2b30 <_ZN19CPixelLEDControllerIL6EOrder66ELi1ELm4294967295EE4showEPK4CRGBiS2_+0xcc>
                    d[i] = scale8(Q, e[i]);
    2b06:	731a      	strb	r2, [r3, #12]
            for(int i = 0; i < 3; i++) {
    2b08:	3501      	adds	r5, #1
                    if(e[i]) e[i]--;
    2b0a:	1e62      	subs	r2, r4, #1
    2b0c:	b104      	cbz	r4, 2b10 <_ZN19CPixelLEDControllerIL6EOrder66ELi1ELm4294967295EE4showEPK4CRGBiS2_+0xac>
    2b0e:	73da      	strb	r2, [r3, #15]
            for(int i = 0; i < 3; i++) {
    2b10:	2d03      	cmp	r5, #3
    2b12:	f103 0301 	add.w	r3, r3, #1
    2b16:	d0c4      	beq.n	2aa2 <_ZN19CPixelLEDControllerIL6EOrder66ELi1ELm4294967295EE4showEPK4CRGBiS2_+0x3e>
    2b18:	7c9c      	ldrb	r4, [r3, #18]
                    e[i] = s ? (256/s) + 1 : 0;
    2b1a:	2c00      	cmp	r4, #0
    2b1c:	d1e7      	bne.n	2aee <_ZN19CPixelLEDControllerIL6EOrder66ELi1ELm4294967295EE4showEPK4CRGBiS2_+0x8a>
    2b1e:	2201      	movs	r2, #1
    2b20:	fb07 f202 	mul.w	r2, r7, r2
    2b24:	f3c2 2207 	ubfx	r2, r2, #8, #8
                    if(d[i]) (d[i]--);
    2b28:	1e56      	subs	r6, r2, #1
                    e[i] = s ? (256/s) + 1 : 0;
    2b2a:	73dc      	strb	r4, [r3, #15]
                    if(d[i]) (d[i]--);
    2b2c:	2a00      	cmp	r2, #0
    2b2e:	d0ea      	beq.n	2b06 <_ZN19CPixelLEDControllerIL6EOrder66ELi1ELm4294967295EE4showEPK4CRGBiS2_+0xa2>
    2b30:	731e      	strb	r6, [r3, #12]
    2b32:	e7e9      	b.n	2b08 <_ZN19CPixelLEDControllerIL6EOrder66ELi1ELm4294967295EE4showEPK4CRGBiS2_+0xa4>
    2b34:	20001680 	.word	0x20001680

00002b38 <_ZN19CPixelLEDControllerIL6EOrder66ELi1ELm4294967295EE9showColorERK4CRGBiS2_>:
  virtual void showColor(const struct CRGB & data, int nLeds, CRGB scale) {
    2b38:	b5f0      	push	{r4, r5, r6, r7, lr}
    PixelController<RGB_ORDER, LANES, MASK> pixels(data, nLeds, scale, getDither());
    2b3a:	7c85      	ldrb	r5, [r0, #18]
        r = rhs.r;
    2b3c:	781c      	ldrb	r4, [r3, #0]
        g = rhs.g;
    2b3e:	785e      	ldrb	r6, [r3, #1]
        b = rhs.b;
    2b40:	789b      	ldrb	r3, [r3, #2]
  virtual void showColor(const struct CRGB & data, int nLeds, CRGB scale) {
    2b42:	b089      	sub	sp, #36	; 0x24
            switch(dither) {
    2b44:	2d01      	cmp	r5, #1
        PixelController(const CRGB &d, int len, CRGB & s, EDitherMode dither = BINARY_DITHER) : mData((const uint8_t*)&d), mLen(len), mLenRemaining(len), mScale(s) {
    2b46:	9101      	str	r1, [sp, #4]
    2b48:	9202      	str	r2, [sp, #8]
    2b4a:	9203      	str	r2, [sp, #12]
        r = rhs.r;
    2b4c:	f88d 4016 	strb.w	r4, [sp, #22]
        g = rhs.g;
    2b50:	f88d 6017 	strb.w	r6, [sp, #23]
        b = rhs.b;
    2b54:	f88d 3018 	strb.w	r3, [sp, #24]
            switch(dither) {
    2b58:	d016      	beq.n	2b88 <_ZN19CPixelLEDControllerIL6EOrder66ELi1ELm4294967295EE9showColorERK4CRGBiS2_+0x50>
                default: d[0]=d[1]=d[2]=e[0]=e[1]=e[2]=0; break;
    2b5a:	2300      	movs	r3, #0
    2b5c:	f88d 3015 	strb.w	r3, [sp, #21]
    2b60:	f88d 3014 	strb.w	r3, [sp, #20]
    2b64:	f88d 3013 	strb.w	r3, [sp, #19]
    2b68:	f88d 3012 	strb.w	r3, [sp, #18]
    2b6c:	f88d 3011 	strb.w	r3, [sp, #17]
    2b70:	f88d 3010 	strb.w	r3, [sp, #16]
    2b74:	a901      	add	r1, sp, #4
    showPixels(pixels);
    2b76:	6802      	ldr	r2, [r0, #0]
            mAdvance = 0;
    2b78:	2300      	movs	r3, #0
    showPixels(pixels);
    2b7a:	6992      	ldr	r2, [r2, #24]
            mAdvance = 0;
    2b7c:	f88d 3019 	strb.w	r3, [sp, #25]
            mOffsets[i] = nOffset;
    2b80:	9307      	str	r3, [sp, #28]
    showPixels(pixels);
    2b82:	4790      	blx	r2
  }
    2b84:	b009      	add	sp, #36	; 0x24
    2b86:	bdf0      	pop	{r4, r5, r6, r7, pc}
            R++;
    2b88:	4a1f      	ldr	r2, [pc, #124]	; (2c08 <_ZN19CPixelLEDControllerIL6EOrder66ELi1ELm4294967295EE9showColorERK4CRGBiS2_+0xd0>)
    2b8a:	7813      	ldrb	r3, [r2, #0]
    2b8c:	3301      	adds	r3, #1
            R &= (0x01 << ditherBits) - 1;
    2b8e:	f003 0307 	and.w	r3, r3, #7
            byte Q = 0;
    2b92:	f013 0f01 	tst.w	r3, #1
    2b96:	bf14      	ite	ne
    2b98:	2780      	movne	r7, #128	; 0x80
    2b9a:	2700      	moveq	r7, #0
            R &= (0x01 << ditherBits) - 1;
    2b9c:	7013      	strb	r3, [r2, #0]
                if(R & 0x02) { Q |= 0x40; }
    2b9e:	079a      	lsls	r2, r3, #30
    2ba0:	bf44      	itt	mi
    2ba2:	f047 0740 	orrmi.w	r7, r7, #64	; 0x40
    2ba6:	b2ff      	uxtbmi	r7, r7
                if(R & 0x04) { Q |= 0x20; }
    2ba8:	075b      	lsls	r3, r3, #29
    2baa:	bf48      	it	mi
    2bac:	f047 0720 	orrmi.w	r7, r7, #32
                Q += 0x01 << (7 - ditherBits);
    2bb0:	3710      	adds	r7, #16
    2bb2:	a901      	add	r1, sp, #4
    2bb4:	b2ff      	uxtb	r7, r7
    2bb6:	460b      	mov	r3, r1
            for(int i = 0; i < 3; i++) {
    2bb8:	2500      	movs	r5, #0
                    e[i] = s ? (256/s) + 1 : 0;
    2bba:	f44f 7e80 	mov.w	lr, #256	; 0x100
    2bbe:	b1bc      	cbz	r4, 2bf0 <_ZN19CPixelLEDControllerIL6EOrder66ELi1ELm4294967295EE9showColorERK4CRGBiS2_+0xb8>
    2bc0:	fb9e f4f4 	sdiv	r4, lr, r4
    2bc4:	3401      	adds	r4, #1
    2bc6:	b2e4      	uxtb	r4, r4
    2bc8:	1c62      	adds	r2, r4, #1
    2bca:	fb02 f207 	mul.w	r2, r2, r7
    2bce:	f3c2 2207 	ubfx	r2, r2, #8, #8
                    if(d[i]) (d[i]--);
    2bd2:	1e56      	subs	r6, r2, #1
                    e[i] = s ? (256/s) + 1 : 0;
    2bd4:	73dc      	strb	r4, [r3, #15]
                    if(d[i]) (d[i]--);
    2bd6:	b9a2      	cbnz	r2, 2c02 <_ZN19CPixelLEDControllerIL6EOrder66ELi1ELm4294967295EE9showColorERK4CRGBiS2_+0xca>
                    d[i] = scale8(Q, e[i]);
    2bd8:	731a      	strb	r2, [r3, #12]
            for(int i = 0; i < 3; i++) {
    2bda:	3501      	adds	r5, #1
                    if(e[i]) e[i]--;
    2bdc:	1e62      	subs	r2, r4, #1
    2bde:	b104      	cbz	r4, 2be2 <_ZN19CPixelLEDControllerIL6EOrder66ELi1ELm4294967295EE9showColorERK4CRGBiS2_+0xaa>
    2be0:	73da      	strb	r2, [r3, #15]
            for(int i = 0; i < 3; i++) {
    2be2:	2d03      	cmp	r5, #3
    2be4:	f103 0301 	add.w	r3, r3, #1
    2be8:	d0c5      	beq.n	2b76 <_ZN19CPixelLEDControllerIL6EOrder66ELi1ELm4294967295EE9showColorERK4CRGBiS2_+0x3e>
    2bea:	7c9c      	ldrb	r4, [r3, #18]
                    e[i] = s ? (256/s) + 1 : 0;
    2bec:	2c00      	cmp	r4, #0
    2bee:	d1e7      	bne.n	2bc0 <_ZN19CPixelLEDControllerIL6EOrder66ELi1ELm4294967295EE9showColorERK4CRGBiS2_+0x88>
    2bf0:	2201      	movs	r2, #1
    2bf2:	fb02 f207 	mul.w	r2, r2, r7
    2bf6:	f3c2 2207 	ubfx	r2, r2, #8, #8
                    if(d[i]) (d[i]--);
    2bfa:	1e56      	subs	r6, r2, #1
                    e[i] = s ? (256/s) + 1 : 0;
    2bfc:	73dc      	strb	r4, [r3, #15]
                    if(d[i]) (d[i]--);
    2bfe:	2a00      	cmp	r2, #0
    2c00:	d0ea      	beq.n	2bd8 <_ZN19CPixelLEDControllerIL6EOrder66ELi1ELm4294967295EE9showColorERK4CRGBiS2_+0xa0>
    2c02:	731e      	strb	r6, [r3, #12]
    2c04:	e7e9      	b.n	2bda <_ZN19CPixelLEDControllerIL6EOrder66ELi1ELm4294967295EE9showColorERK4CRGBiS2_+0xa2>
    2c06:	bf00      	nop
    2c08:	20001680 	.word	0x20001680

00002c0c <_ZN19ClocklessControllerILi32ELi22ELi22ELi44EL6EOrder66ELi0ELb0ELi50EE10showPixelsER15PixelControllerILS0_66ELi1ELm4294967295EE>:

protected:

	virtual void showPixels(PixelController<RGB_ORDER> & pixels) {
    2c0c:	e92d 4ff0 	stmdb	sp!, {r4, r5, r6, r7, r8, r9, sl, fp, lr}
    2c10:	b08b      	sub	sp, #44	; 0x2c
    2c12:	4604      	mov	r4, r0
    2c14:	9009      	str	r0, [sp, #36]	; 0x24
    2c16:	9101      	str	r1, [sp, #4]
	CMinWait() { mLastMicros = 0; }

	void wait() {
		uint16_t diff;
		do {
			diff = (micros() & 0xFFFF) - mLastMicros;
    2c18:	f004 f9ca 	bl	6fb0 <micros>
    2c1c:	8c23      	ldrh	r3, [r4, #32]
    2c1e:	1ac0      	subs	r0, r0, r3
		do {
    2c20:	b283      	uxth	r3, r0
    2c22:	2b31      	cmp	r3, #49	; 0x31
    2c24:	d9f8      	bls.n	2c18 <_ZN19ClocklessControllerILi32ELi22ELi22ELi44EL6EOrder66ELi0ELb0ELi50EE10showPixelsER15PixelControllerILS0_66ELi1ELm4294967295EE+0xc>
            d[0] = other.d[0];
    2c26:	9901      	ldr	r1, [sp, #4]

	// This method is made static to force making register Y available to use for data on AVR - if the method is non-static, then
	// gcc will use register Y for the this pointer.
	static uint32_t showRGBInternal(PixelController<RGB_ORDER> pixels) {
	    // Get access to the clock
		ARM_DEMCR    |= ARM_DEMCR_TRCENA;
    2c28:	4bac      	ldr	r3, [pc, #688]	; (2edc <_ZN19ClocklessControllerILi32ELi22ELi22ELi44EL6EOrder66ELi0ELb0ELi50EE10showPixelsER15PixelControllerILS0_66ELi1ELm4294967295EE+0x2d0>)
            e[1] = other.e[1];
    2c2a:	7c0d      	ldrb	r5, [r1, #16]
    2c2c:	681c      	ldr	r4, [r3, #0]
            e[0] = other.e[0];
    2c2e:	7bca      	ldrb	r2, [r1, #15]
            e[1] = other.e[1];
    2c30:	9502      	str	r5, [sp, #8]
            mLenRemaining = mLen = other.mLen;
    2c32:	9d01      	ldr	r5, [sp, #4]
            e[2] = other.e[2];
    2c34:	f891 9011 	ldrb.w	r9, [r1, #17]
            d[1] = other.d[1];
    2c38:	7b4e      	ldrb	r6, [r1, #13]
            mData = other.mData;
    2c3a:	680f      	ldr	r7, [r1, #0]
    /// allow assignment from one RGB struct to another
	inline CRGB& operator= (const CRGB& rhs) __attribute__((always_inline))
    {
        r = rhs.r;
        g = rhs.g;
        b = rhs.b;
    2c3c:	f891 a014 	ldrb.w	sl, [r1, #20]
            d[0] = other.d[0];
    2c40:	f891 800c 	ldrb.w	r8, [r1, #12]
            d[2] = other.d[2];
    2c44:	f891 e00e 	ldrb.w	lr, [r1, #14]
            e[0] = other.e[0];
    2c48:	9203      	str	r2, [sp, #12]
        r = rhs.r;
    2c4a:	f891 b012 	ldrb.w	fp, [r1, #18]
        g = rhs.g;
    2c4e:	7cca      	ldrb	r2, [r1, #19]
		ARM_DWT_CTRL |= ARM_DWT_CTRL_CYCCNTENA;
    2c50:	48a3      	ldr	r0, [pc, #652]	; (2ee0 <_ZN19ClocklessControllerILi32ELi22ELi22ELi44EL6EOrder66ELi0ELb0ELi50EE10showPixelsER15PixelControllerILS0_66ELi1ELm4294967295EE+0x2d4>)
            mAdvance = other.mAdvance;
    2c52:	7d49      	ldrb	r1, [r1, #21]
            e[2] = other.e[2];
    2c54:	f8cd 9010 	str.w	r9, [sp, #16]
		ARM_DEMCR    |= ARM_DEMCR_TRCENA;
    2c58:	f044 7480 	orr.w	r4, r4, #16777216	; 0x1000000
            mAdvance = other.mAdvance;
    2c5c:	9105      	str	r1, [sp, #20]
        b = rhs.b;
    2c5e:	f8cd a01c 	str.w	sl, [sp, #28]
            mLenRemaining = mLen = other.mLen;
    2c62:	6869      	ldr	r1, [r5, #4]
    2c64:	601c      	str	r4, [r3, #0]
		ARM_DWT_CTRL |= ARM_DWT_CTRL_CYCCNTENA;
    2c66:	6805      	ldr	r5, [r0, #0]
		ARM_DWT_CYCCNT = 0;
    2c68:	4c9e      	ldr	r4, [pc, #632]	; (2ee4 <_ZN19ClocklessControllerILi32ELi22ELi22ELi44EL6EOrder66ELi0ELb0ELi50EE10showPixelsER15PixelControllerILS0_66ELi1ELm4294967295EE+0x2d8>)

		register data_ptr_t port = FastPin<DATA_PIN>::port();
		register data_t hi = *port | FastPin<DATA_PIN>::mask();;
    2c6a:	4b9f      	ldr	r3, [pc, #636]	; (2ee8 <_ZN19ClocklessControllerILi32ELi22ELi22ELi44EL6EOrder66ELi0ELb0ELi50EE10showPixelsER15PixelControllerILS0_66ELi1ELm4294967295EE+0x2dc>)
            d[RO(0)] = e[RO(0)] - d[RO(0)];
    2c6c:	f8dd 9008 	ldr.w	r9, [sp, #8]
		ARM_DWT_CTRL |= ARM_DWT_CTRL_CYCCNTENA;
    2c70:	f045 0501 	orr.w	r5, r5, #1
    2c74:	6005      	str	r5, [r0, #0]
		ARM_DWT_CYCCNT = 0;
    2c76:	2000      	movs	r0, #0
    2c78:	6020      	str	r0, [r4, #0]
		register data_t hi = *port | FastPin<DATA_PIN>::mask();;
    2c7a:	6818      	ldr	r0, [r3, #0]
		register data_t lo = *port & ~FastPin<DATA_PIN>::mask();;
    2c7c:	6818      	ldr	r0, [r3, #0]
    2c7e:	f420 2080 	bic.w	r0, r0, #262144	; 0x40000
		*port = lo;
    2c82:	6018      	str	r0, [r3, #0]
        template<int SLOT>  __attribute__((always_inline)) inline static uint8_t loadByte(PixelController & pc) { return pc.mData[RO(SLOT)]; }
    2c84:	787b      	ldrb	r3, [r7, #1]
            d[RO(0)] = e[RO(0)] - d[RO(0)];
    2c86:	ebc6 0609 	rsb	r6, r6, r9
    2c8a:	fa5f fc86 	uxtb.w	ip, r6
        template<int SLOT>  __attribute__((always_inline)) inline static uint8_t dither(PixelController & pc, uint8_t b) { return b ? qadd8(b, pc.d[RO(SLOT)]) : 0; }
    2c8e:	2b00      	cmp	r3, #0
    2c90:	f040 812c 	bne.w	2eec <_ZN19ClocklessControllerILi32ELi22ELi22ELi44EL6EOrder66ELi0ELb0ELi50EE10showPixelsER15PixelControllerILS0_66ELi1ELm4294967295EE+0x2e0>
    2c94:	3201      	adds	r2, #1
    2c96:	9206      	str	r2, [sp, #24]
    2c98:	469a      	mov	sl, r3

		// Setup the pixel controller and load/scale the first byte
		pixels.preStepFirstByteDithering();
		register uint8_t b = pixels.loadAndScale0();

		cli();
    2c9a:	b672      	cpsid	i
		uint32_t next_mark = ARM_DWT_CYCCNT + (T1+T2+T3);
    2c9c:	4b91      	ldr	r3, [pc, #580]	; (2ee4 <_ZN19ClocklessControllerILi32ELi22ELi22ELi44EL6EOrder66ELi0ELb0ELi50EE10showPixelsER15PixelControllerILS0_66ELi1ELm4294967295EE+0x2d8>)
    2c9e:	681a      	ldr	r2, [r3, #0]

		while(pixels.has(1)) {
    2ca0:	2900      	cmp	r1, #0
		uint32_t next_mark = ARM_DWT_CYCCNT + (T1+T2+T3);
    2ca2:	f102 0258 	add.w	r2, r2, #88	; 0x58
		while(pixels.has(1)) {
    2ca6:	f340 810e 	ble.w	2ec6 <_ZN19ClocklessControllerILi32ELi22ELi22ELi44EL6EOrder66ELi0ELb0ELi50EE10showPixelsER15PixelControllerILS0_66ELi1ELm4294967295EE+0x2ba>
    2caa:	f10b 0b01 	add.w	fp, fp, #1
			// if interrupts took longer than 45s, punt on the current frame
			if(ARM_DWT_CYCCNT > next_mark) {
				if((ARM_DWT_CYCCNT-next_mark) > ((WAIT_TIME-INTERRUPT_THRESHOLD)*CLKS_PER_US)) { sei(); return 0; }
			}

			hi = *port | FastPin<DATA_PIN>::mask();
    2cae:	488e      	ldr	r0, [pc, #568]	; (2ee8 <_ZN19ClocklessControllerILi32ELi22ELi22ELi44EL6EOrder66ELi0ELb0ELi50EE10showPixelsER15PixelControllerILS0_66ELi1ELm4294967295EE+0x2dc>)
    2cb0:	f8cd b020 	str.w	fp, [sp, #32]
		while(pixels.has(1)) {
    2cb4:	4689      	mov	r9, r1
			while(ARM_DWT_CYCCNT < next_mark);
    2cb6:	461e      	mov	r6, r3
                d[0] = e[0] - d[0];
    2cb8:	f8dd b00c 	ldr.w	fp, [sp, #12]
                d[1] = e[1] - d[1];
    2cbc:	9902      	ldr	r1, [sp, #8]
                d[2] = e[2] - d[2];
    2cbe:	9c04      	ldr	r4, [sp, #16]
                d[0] = e[0] - d[0];
    2cc0:	ebc8 080b 	rsb	r8, r8, fp
                d[1] = e[1] - d[1];
    2cc4:	ebcc 0c01 	rsb	ip, ip, r1
                d[2] = e[2] - d[2];
    2cc8:	ebce 0e04 	rsb	lr, lr, r4
                d[0] = e[0] - d[0];
    2ccc:	fa5f f888 	uxtb.w	r8, r8
                d[1] = e[1] - d[1];
    2cd0:	fa5f fc8c 	uxtb.w	ip, ip
                d[2] = e[2] - d[2];
    2cd4:	fa5f fe8e 	uxtb.w	lr, lr
			cli();
    2cd8:	b672      	cpsid	i
			if(ARM_DWT_CYCCNT > next_mark) {
    2cda:	6819      	ldr	r1, [r3, #0]
    2cdc:	4291      	cmp	r1, r2
    2cde:	d906      	bls.n	2cee <_ZN19ClocklessControllerILi32ELi22ELi22ELi44EL6EOrder66ELi0ELb0ELi50EE10showPixelsER15PixelControllerILS0_66ELi1ELm4294967295EE+0xe2>
				if((ARM_DWT_CYCCNT-next_mark) > ((WAIT_TIME-INTERRUPT_THRESHOLD)*CLKS_PER_US)) { sei(); return 0; }
    2ce0:	6819      	ldr	r1, [r3, #0]
    2ce2:	f640 55c8 	movw	r5, #3528	; 0xdc8
    2ce6:	1a89      	subs	r1, r1, r2
    2ce8:	42a9      	cmp	r1, r5
    2cea:	f200 8109 	bhi.w	2f00 <_ZN19ClocklessControllerILi32ELi22ELi22ELi44EL6EOrder66ELi0ELb0ELi50EE10showPixelsER15PixelControllerILS0_66ELi1ELm4294967295EE+0x2f4>
			hi = *port | FastPin<DATA_PIN>::mask();
    2cee:	6804      	ldr	r4, [r0, #0]
			lo = *port & ~FastPin<DATA_PIN>::mask();
    2cf0:	6805      	ldr	r5, [r0, #0]
			hi = *port | FastPin<DATA_PIN>::mask();
    2cf2:	f444 2480 	orr.w	r4, r4, #262144	; 0x40000
			lo = *port & ~FastPin<DATA_PIN>::mask();
    2cf6:	f425 2580 	bic.w	r5, r5, #262144	; 0x40000
    2cfa:	f04f 0b07 	mov.w	fp, #7
			while(ARM_DWT_CYCCNT < next_mark);
    2cfe:	6819      	ldr	r1, [r3, #0]
    2d00:	4291      	cmp	r1, r2
    2d02:	d3fc      	bcc.n	2cfe <_ZN19ClocklessControllerILi32ELi22ELi22ELi44EL6EOrder66ELi0ELb0ELi50EE10showPixelsER15PixelControllerILS0_66ELi1ELm4294967295EE+0xf2>
			next_mark = ARM_DWT_CYCCNT + (T1+T2+T3);
    2d04:	6832      	ldr	r2, [r6, #0]

	inline static void toggle() __attribute__ ((always_inline)) { _PTOR::r() = _MASK; }

	inline static void hi(register port_ptr_t port) __attribute__ ((always_inline)) { hi(); }
	inline static void lo(register port_ptr_t port) __attribute__ ((always_inline)) { lo(); }
	inline static void fastset(register port_ptr_t port, register port_t val) __attribute__ ((always_inline)) { *port = val; }
    2d06:	6004      	str	r4, [r0, #0]
			if(b&0x80) {
    2d08:	f01a 0f80 	tst.w	sl, #128	; 0x80
			next_mark = ARM_DWT_CYCCNT + (T1+T2+T3);
    2d0c:	f102 0258 	add.w	r2, r2, #88	; 0x58
			if(b&0x80) {
    2d10:	f040 8099 	bne.w	2e46 <_ZN19ClocklessControllerILi32ELi22ELi22ELi44EL6EOrder66ELi0ELb0ELi50EE10showPixelsER15PixelControllerILS0_66ELi1ELm4294967295EE+0x23a>
				while((next_mark - ARM_DWT_CYCCNT) > (T2+T3+(2*(F_CPU/24000000))));
    2d14:	6819      	ldr	r1, [r3, #0]
    2d16:	1a51      	subs	r1, r2, r1
    2d18:	2948      	cmp	r1, #72	; 0x48
    2d1a:	d8fb      	bhi.n	2d14 <_ZN19ClocklessControllerILi32ELi22ELi22ELi44EL6EOrder66ELi0ELb0ELi50EE10showPixelsER15PixelControllerILS0_66ELi1ELm4294967295EE+0x108>
			b <<= 1;
    2d1c:	ea4f 0a4a 	mov.w	sl, sl, lsl #1
		for(register uint32_t i = BITS-1; i > 0; i--) {
    2d20:	f1bb 0b01 	subs.w	fp, fp, #1
    2d24:	6005      	str	r5, [r0, #0]
			b <<= 1;
    2d26:	fa5f fa8a 	uxtb.w	sl, sl
		for(register uint32_t i = BITS-1; i > 0; i--) {
    2d2a:	d1e8      	bne.n	2cfe <_ZN19ClocklessControllerILi32ELi22ELi22ELi44EL6EOrder66ELi0ELb0ELi50EE10showPixelsER15PixelControllerILS0_66ELi1ELm4294967295EE+0xf2>
		while(ARM_DWT_CYCCNT < next_mark);
    2d2c:	6819      	ldr	r1, [r3, #0]
    2d2e:	4291      	cmp	r1, r2
    2d30:	d3fc      	bcc.n	2d2c <_ZN19ClocklessControllerILi32ELi22ELi22ELi44EL6EOrder66ELi0ELb0ELi50EE10showPixelsER15PixelControllerILS0_66ELi1ELm4294967295EE+0x120>
		next_mark = ARM_DWT_CYCCNT + (T1+T2+T3);
    2d32:	6832      	ldr	r2, [r6, #0]
    2d34:	6004      	str	r4, [r0, #0]
		if(b&0x80) {
    2d36:	f01a 0f80 	tst.w	sl, #128	; 0x80
		next_mark = ARM_DWT_CYCCNT + (T1+T2+T3);
    2d3a:	f102 0258 	add.w	r2, r2, #88	; 0x58
		if(b&0x80) {
    2d3e:	f040 808c 	bne.w	2e5a <_ZN19ClocklessControllerILi32ELi22ELi22ELi44EL6EOrder66ELi0ELb0ELi50EE10showPixelsER15PixelControllerILS0_66ELi1ELm4294967295EE+0x24e>
			while((next_mark - ARM_DWT_CYCCNT) > (T2+T3+(2*(F_CPU/24000000))));
    2d42:	6819      	ldr	r1, [r3, #0]
    2d44:	1a51      	subs	r1, r2, r1
    2d46:	2948      	cmp	r1, #72	; 0x48
    2d48:	d8fb      	bhi.n	2d42 <_ZN19ClocklessControllerILi32ELi22ELi22ELi44EL6EOrder66ELi0ELb0ELi50EE10showPixelsER15PixelControllerILS0_66ELi1ELm4294967295EE+0x136>
    2d4a:	6005      	str	r5, [r0, #0]
        template<int SLOT>  __attribute__((always_inline)) inline static uint8_t loadByte(PixelController & pc) { return pc.mData[RO(SLOT)]; }
    2d4c:	7839      	ldrb	r1, [r7, #0]
        template<int SLOT>  __attribute__((always_inline)) inline static uint8_t dither(PixelController & pc, uint8_t b) { return b ? qadd8(b, pc.d[RO(SLOT)]) : 0; }
    2d4e:	2900      	cmp	r1, #0
    2d50:	f000 80b3 	beq.w	2eba <_ZN19ClocklessControllerILi32ELi22ELi22ELi44EL6EOrder66ELi0ELb0ELi50EE10showPixelsER15PixelControllerILS0_66ELi1ELm4294967295EE+0x2ae>
         "L_%=: "
         : "+a" (i)
         : "a"  (j) );
    return i;
#elif QADD8_ARM_DSP_ASM == 1
    asm volatile( "uqadd8 %0, %0, %1" : "+r" (i) : "r" (j));
    2d54:	fa81 f158 	uqadd8	r1, r1, r8
    2d58:	f8dd b020 	ldr.w	fp, [sp, #32]
    2d5c:	b2c9      	uxtb	r1, r1
    2d5e:	fb01 fa0b 	mul.w	sl, r1, fp
    2d62:	f3ca 2a07 	ubfx	sl, sl, #8, #8
    2d66:	f04f 0b07 	mov.w	fp, #7
			while(ARM_DWT_CYCCNT < next_mark);
    2d6a:	6819      	ldr	r1, [r3, #0]
    2d6c:	4291      	cmp	r1, r2
    2d6e:	d3fc      	bcc.n	2d6a <_ZN19ClocklessControllerILi32ELi22ELi22ELi44EL6EOrder66ELi0ELb0ELi50EE10showPixelsER15PixelControllerILS0_66ELi1ELm4294967295EE+0x15e>
			next_mark = ARM_DWT_CYCCNT + (T1+T2+T3);
    2d70:	6832      	ldr	r2, [r6, #0]
    2d72:	6004      	str	r4, [r0, #0]
			if(b&0x80) {
    2d74:	f01a 0f80 	tst.w	sl, #128	; 0x80
			next_mark = ARM_DWT_CYCCNT + (T1+T2+T3);
    2d78:	f102 0258 	add.w	r2, r2, #88	; 0x58
			if(b&0x80) {
    2d7c:	d177      	bne.n	2e6e <_ZN19ClocklessControllerILi32ELi22ELi22ELi44EL6EOrder66ELi0ELb0ELi50EE10showPixelsER15PixelControllerILS0_66ELi1ELm4294967295EE+0x262>
				while((next_mark - ARM_DWT_CYCCNT) > (T2+T3+(2*(F_CPU/24000000))));
    2d7e:	6819      	ldr	r1, [r3, #0]
    2d80:	1a51      	subs	r1, r2, r1
    2d82:	2948      	cmp	r1, #72	; 0x48
    2d84:	d8fb      	bhi.n	2d7e <_ZN19ClocklessControllerILi32ELi22ELi22ELi44EL6EOrder66ELi0ELb0ELi50EE10showPixelsER15PixelControllerILS0_66ELi1ELm4294967295EE+0x172>
			b <<= 1;
    2d86:	ea4f 0a4a 	mov.w	sl, sl, lsl #1
		for(register uint32_t i = BITS-1; i > 0; i--) {
    2d8a:	f1bb 0b01 	subs.w	fp, fp, #1
    2d8e:	6005      	str	r5, [r0, #0]
			b <<= 1;
    2d90:	fa5f fa8a 	uxtb.w	sl, sl
		for(register uint32_t i = BITS-1; i > 0; i--) {
    2d94:	d1e9      	bne.n	2d6a <_ZN19ClocklessControllerILi32ELi22ELi22ELi44EL6EOrder66ELi0ELb0ELi50EE10showPixelsER15PixelControllerILS0_66ELi1ELm4294967295EE+0x15e>
		while(ARM_DWT_CYCCNT < next_mark);
    2d96:	6819      	ldr	r1, [r3, #0]
    2d98:	4291      	cmp	r1, r2
    2d9a:	d3fc      	bcc.n	2d96 <_ZN19ClocklessControllerILi32ELi22ELi22ELi44EL6EOrder66ELi0ELb0ELi50EE10showPixelsER15PixelControllerILS0_66ELi1ELm4294967295EE+0x18a>
		next_mark = ARM_DWT_CYCCNT + (T1+T2+T3);
    2d9c:	6832      	ldr	r2, [r6, #0]
    2d9e:	6004      	str	r4, [r0, #0]
		if(b&0x80) {
    2da0:	f01a 0f80 	tst.w	sl, #128	; 0x80
		next_mark = ARM_DWT_CYCCNT + (T1+T2+T3);
    2da4:	f102 0258 	add.w	r2, r2, #88	; 0x58
		if(b&0x80) {
    2da8:	d16a      	bne.n	2e80 <_ZN19ClocklessControllerILi32ELi22ELi22ELi44EL6EOrder66ELi0ELb0ELi50EE10showPixelsER15PixelControllerILS0_66ELi1ELm4294967295EE+0x274>
			while((next_mark - ARM_DWT_CYCCNT) > (T2+T3+(2*(F_CPU/24000000))));
    2daa:	6819      	ldr	r1, [r3, #0]
    2dac:	1a51      	subs	r1, r2, r1
    2dae:	2948      	cmp	r1, #72	; 0x48
    2db0:	d8fb      	bhi.n	2daa <_ZN19ClocklessControllerILi32ELi22ELi22ELi44EL6EOrder66ELi0ELb0ELi50EE10showPixelsER15PixelControllerILS0_66ELi1ELm4294967295EE+0x19e>
    2db2:	6005      	str	r5, [r0, #0]
        template<int SLOT>  __attribute__((always_inline)) inline static uint8_t loadByte(PixelController & pc) { return pc.mData[RO(SLOT)]; }
    2db4:	78b9      	ldrb	r1, [r7, #2]
        template<int SLOT>  __attribute__((always_inline)) inline static uint8_t dither(PixelController & pc, uint8_t b) { return b ? qadd8(b, pc.d[RO(SLOT)]) : 0; }
    2db6:	2900      	cmp	r1, #0
    2db8:	d07d      	beq.n	2eb6 <_ZN19ClocklessControllerILi32ELi22ELi22ELi44EL6EOrder66ELi0ELb0ELi50EE10showPixelsER15PixelControllerILS0_66ELi1ELm4294967295EE+0x2aa>
    2dba:	fa81 f15e 	uqadd8	r1, r1, lr
    2dbe:	f8dd a01c 	ldr.w	sl, [sp, #28]
    2dc2:	b2c9      	uxtb	r1, r1
    2dc4:	fb0a 1101 	mla	r1, sl, r1, r1
    2dc8:	f3c1 2a07 	ubfx	sl, r1, #8, #8
    2dcc:	f04f 0b07 	mov.w	fp, #7
			while(ARM_DWT_CYCCNT < next_mark);
    2dd0:	6819      	ldr	r1, [r3, #0]
    2dd2:	4291      	cmp	r1, r2
    2dd4:	d3fc      	bcc.n	2dd0 <_ZN19ClocklessControllerILi32ELi22ELi22ELi44EL6EOrder66ELi0ELb0ELi50EE10showPixelsER15PixelControllerILS0_66ELi1ELm4294967295EE+0x1c4>
			next_mark = ARM_DWT_CYCCNT + (T1+T2+T3);
    2dd6:	6832      	ldr	r2, [r6, #0]
    2dd8:	6004      	str	r4, [r0, #0]
			if(b&0x80) {
    2dda:	f01a 0f80 	tst.w	sl, #128	; 0x80
			next_mark = ARM_DWT_CYCCNT + (T1+T2+T3);
    2dde:	f102 0258 	add.w	r2, r2, #88	; 0x58
			if(b&0x80) {
    2de2:	d156      	bne.n	2e92 <_ZN19ClocklessControllerILi32ELi22ELi22ELi44EL6EOrder66ELi0ELb0ELi50EE10showPixelsER15PixelControllerILS0_66ELi1ELm4294967295EE+0x286>
				while((next_mark - ARM_DWT_CYCCNT) > (T2+T3+(2*(F_CPU/24000000))));
    2de4:	6819      	ldr	r1, [r3, #0]
    2de6:	1a51      	subs	r1, r2, r1
    2de8:	2948      	cmp	r1, #72	; 0x48
    2dea:	d8fb      	bhi.n	2de4 <_ZN19ClocklessControllerILi32ELi22ELi22ELi44EL6EOrder66ELi0ELb0ELi50EE10showPixelsER15PixelControllerILS0_66ELi1ELm4294967295EE+0x1d8>
			b <<= 1;
    2dec:	ea4f 0a4a 	mov.w	sl, sl, lsl #1
		for(register uint32_t i = BITS-1; i > 0; i--) {
    2df0:	f1bb 0b01 	subs.w	fp, fp, #1
    2df4:	6005      	str	r5, [r0, #0]
			b <<= 1;
    2df6:	fa5f fa8a 	uxtb.w	sl, sl
		for(register uint32_t i = BITS-1; i > 0; i--) {
    2dfa:	d1e9      	bne.n	2dd0 <_ZN19ClocklessControllerILi32ELi22ELi22ELi44EL6EOrder66ELi0ELb0ELi50EE10showPixelsER15PixelControllerILS0_66ELi1ELm4294967295EE+0x1c4>
		while(ARM_DWT_CYCCNT < next_mark);
    2dfc:	6819      	ldr	r1, [r3, #0]
    2dfe:	4291      	cmp	r1, r2
    2e00:	d3fc      	bcc.n	2dfc <_ZN19ClocklessControllerILi32ELi22ELi22ELi44EL6EOrder66ELi0ELb0ELi50EE10showPixelsER15PixelControllerILS0_66ELi1ELm4294967295EE+0x1f0>
		next_mark = ARM_DWT_CYCCNT + (T1+T2+T3);
    2e02:	6832      	ldr	r2, [r6, #0]
    2e04:	6004      	str	r4, [r0, #0]
		if(b&0x80) {
    2e06:	f01a 0f80 	tst.w	sl, #128	; 0x80
		next_mark = ARM_DWT_CYCCNT + (T1+T2+T3);
    2e0a:	f102 0258 	add.w	r2, r2, #88	; 0x58
		if(b&0x80) {
    2e0e:	d149      	bne.n	2ea4 <_ZN19ClocklessControllerILi32ELi22ELi22ELi44EL6EOrder66ELi0ELb0ELi50EE10showPixelsER15PixelControllerILS0_66ELi1ELm4294967295EE+0x298>
			while((next_mark - ARM_DWT_CYCCNT) > (T2+T3+(2*(F_CPU/24000000))));
    2e10:	6819      	ldr	r1, [r3, #0]
    2e12:	1a51      	subs	r1, r2, r1
    2e14:	2948      	cmp	r1, #72	; 0x48
    2e16:	d8fb      	bhi.n	2e10 <_ZN19ClocklessControllerILi32ELi22ELi22ELi44EL6EOrder66ELi0ELb0ELi50EE10showPixelsER15PixelControllerILS0_66ELi1ELm4294967295EE+0x204>
         __attribute__((always_inline)) inline void advanceData() { mData += mAdvance; mLenRemaining--;}
    2e18:	f8dd b014 	ldr.w	fp, [sp, #20]
    2e1c:	6005      	str	r5, [r0, #0]
    2e1e:	fa47 f78b 	sxtab	r7, r7, fp
    2e22:	f109 34ff 	add.w	r4, r9, #4294967295	; 0xffffffff
        template<int SLOT>  __attribute__((always_inline)) inline static uint8_t loadByte(PixelController & pc) { return pc.mData[RO(SLOT)]; }
    2e26:	7879      	ldrb	r1, [r7, #1]
        template<int SLOT>  __attribute__((always_inline)) inline static uint8_t dither(PixelController & pc, uint8_t b) { return b ? qadd8(b, pc.d[RO(SLOT)]) : 0; }
    2e28:	2900      	cmp	r1, #0
    2e2a:	d048      	beq.n	2ebe <_ZN19ClocklessControllerILi32ELi22ELi22ELi44EL6EOrder66ELi0ELb0ELi50EE10showPixelsER15PixelControllerILS0_66ELi1ELm4294967295EE+0x2b2>
    2e2c:	fa81 f15c 	uqadd8	r1, r1, ip
    2e30:	9d06      	ldr	r5, [sp, #24]
    2e32:	b2c9      	uxtb	r1, r1
    2e34:	fb05 fa01 	mul.w	sl, r5, r1
    2e38:	f3ca 2a07 	ubfx	sl, sl, #8, #8

			// Write third byte, read 1st byte of next pixel
			writeBits<8+XTRA0>(next_mark, port, hi, lo, b);
			b = pixels.advanceAndLoadAndScale0();
			#if (FASTLED_ALLOW_INTERRUPTS == 1)
			sei();
    2e3c:	b662      	cpsie	i
		while(pixels.has(1)) {
    2e3e:	2c00      	cmp	r4, #0
    2e40:	d041      	beq.n	2ec6 <_ZN19ClocklessControllerILi32ELi22ELi22ELi44EL6EOrder66ELi0ELb0ELi50EE10showPixelsER15PixelControllerILS0_66ELi1ELm4294967295EE+0x2ba>
         __attribute__((always_inline)) inline void advanceData() { mData += mAdvance; mLenRemaining--;}
    2e42:	46a1      	mov	r9, r4
    2e44:	e738      	b.n	2cb8 <_ZN19ClocklessControllerILi32ELi22ELi22ELi44EL6EOrder66ELi0ELb0ELi50EE10showPixelsER15PixelControllerILS0_66ELi1ELm4294967295EE+0xac>
				while((next_mark - ARM_DWT_CYCCNT) > (T3+(2*(F_CPU/24000000))));
    2e46:	6819      	ldr	r1, [r3, #0]
    2e48:	1a51      	subs	r1, r2, r1
    2e4a:	2932      	cmp	r1, #50	; 0x32
    2e4c:	f67f af66 	bls.w	2d1c <_ZN19ClocklessControllerILi32ELi22ELi22ELi44EL6EOrder66ELi0ELb0ELi50EE10showPixelsER15PixelControllerILS0_66ELi1ELm4294967295EE+0x110>
    2e50:	6819      	ldr	r1, [r3, #0]
    2e52:	1a51      	subs	r1, r2, r1
    2e54:	2932      	cmp	r1, #50	; 0x32
    2e56:	d8f6      	bhi.n	2e46 <_ZN19ClocklessControllerILi32ELi22ELi22ELi44EL6EOrder66ELi0ELb0ELi50EE10showPixelsER15PixelControllerILS0_66ELi1ELm4294967295EE+0x23a>
    2e58:	e760      	b.n	2d1c <_ZN19ClocklessControllerILi32ELi22ELi22ELi44EL6EOrder66ELi0ELb0ELi50EE10showPixelsER15PixelControllerILS0_66ELi1ELm4294967295EE+0x110>
			while((next_mark - ARM_DWT_CYCCNT) > (T3+(2*(F_CPU/24000000))));
    2e5a:	6819      	ldr	r1, [r3, #0]
    2e5c:	1a51      	subs	r1, r2, r1
    2e5e:	2932      	cmp	r1, #50	; 0x32
    2e60:	f67f af73 	bls.w	2d4a <_ZN19ClocklessControllerILi32ELi22ELi22ELi44EL6EOrder66ELi0ELb0ELi50EE10showPixelsER15PixelControllerILS0_66ELi1ELm4294967295EE+0x13e>
    2e64:	6819      	ldr	r1, [r3, #0]
    2e66:	1a51      	subs	r1, r2, r1
    2e68:	2932      	cmp	r1, #50	; 0x32
    2e6a:	d8f6      	bhi.n	2e5a <_ZN19ClocklessControllerILi32ELi22ELi22ELi44EL6EOrder66ELi0ELb0ELi50EE10showPixelsER15PixelControllerILS0_66ELi1ELm4294967295EE+0x24e>
    2e6c:	e76d      	b.n	2d4a <_ZN19ClocklessControllerILi32ELi22ELi22ELi44EL6EOrder66ELi0ELb0ELi50EE10showPixelsER15PixelControllerILS0_66ELi1ELm4294967295EE+0x13e>
				while((next_mark - ARM_DWT_CYCCNT) > (T3+(2*(F_CPU/24000000))));
    2e6e:	6819      	ldr	r1, [r3, #0]
    2e70:	1a51      	subs	r1, r2, r1
    2e72:	2932      	cmp	r1, #50	; 0x32
    2e74:	d987      	bls.n	2d86 <_ZN19ClocklessControllerILi32ELi22ELi22ELi44EL6EOrder66ELi0ELb0ELi50EE10showPixelsER15PixelControllerILS0_66ELi1ELm4294967295EE+0x17a>
    2e76:	6819      	ldr	r1, [r3, #0]
    2e78:	1a51      	subs	r1, r2, r1
    2e7a:	2932      	cmp	r1, #50	; 0x32
    2e7c:	d8f7      	bhi.n	2e6e <_ZN19ClocklessControllerILi32ELi22ELi22ELi44EL6EOrder66ELi0ELb0ELi50EE10showPixelsER15PixelControllerILS0_66ELi1ELm4294967295EE+0x262>
    2e7e:	e782      	b.n	2d86 <_ZN19ClocklessControllerILi32ELi22ELi22ELi44EL6EOrder66ELi0ELb0ELi50EE10showPixelsER15PixelControllerILS0_66ELi1ELm4294967295EE+0x17a>
			while((next_mark - ARM_DWT_CYCCNT) > (T3+(2*(F_CPU/24000000))));
    2e80:	6819      	ldr	r1, [r3, #0]
    2e82:	1a51      	subs	r1, r2, r1
    2e84:	2932      	cmp	r1, #50	; 0x32
    2e86:	d994      	bls.n	2db2 <_ZN19ClocklessControllerILi32ELi22ELi22ELi44EL6EOrder66ELi0ELb0ELi50EE10showPixelsER15PixelControllerILS0_66ELi1ELm4294967295EE+0x1a6>
    2e88:	6819      	ldr	r1, [r3, #0]
    2e8a:	1a51      	subs	r1, r2, r1
    2e8c:	2932      	cmp	r1, #50	; 0x32
    2e8e:	d8f7      	bhi.n	2e80 <_ZN19ClocklessControllerILi32ELi22ELi22ELi44EL6EOrder66ELi0ELb0ELi50EE10showPixelsER15PixelControllerILS0_66ELi1ELm4294967295EE+0x274>
    2e90:	e78f      	b.n	2db2 <_ZN19ClocklessControllerILi32ELi22ELi22ELi44EL6EOrder66ELi0ELb0ELi50EE10showPixelsER15PixelControllerILS0_66ELi1ELm4294967295EE+0x1a6>
				while((next_mark - ARM_DWT_CYCCNT) > (T3+(2*(F_CPU/24000000))));
    2e92:	6819      	ldr	r1, [r3, #0]
    2e94:	1a51      	subs	r1, r2, r1
    2e96:	2932      	cmp	r1, #50	; 0x32
    2e98:	d9a8      	bls.n	2dec <_ZN19ClocklessControllerILi32ELi22ELi22ELi44EL6EOrder66ELi0ELb0ELi50EE10showPixelsER15PixelControllerILS0_66ELi1ELm4294967295EE+0x1e0>
    2e9a:	6819      	ldr	r1, [r3, #0]
    2e9c:	1a51      	subs	r1, r2, r1
    2e9e:	2932      	cmp	r1, #50	; 0x32
    2ea0:	d8f7      	bhi.n	2e92 <_ZN19ClocklessControllerILi32ELi22ELi22ELi44EL6EOrder66ELi0ELb0ELi50EE10showPixelsER15PixelControllerILS0_66ELi1ELm4294967295EE+0x286>
    2ea2:	e7a3      	b.n	2dec <_ZN19ClocklessControllerILi32ELi22ELi22ELi44EL6EOrder66ELi0ELb0ELi50EE10showPixelsER15PixelControllerILS0_66ELi1ELm4294967295EE+0x1e0>
			while((next_mark - ARM_DWT_CYCCNT) > (T3+(2*(F_CPU/24000000))));
    2ea4:	6819      	ldr	r1, [r3, #0]
    2ea6:	1a51      	subs	r1, r2, r1
    2ea8:	2932      	cmp	r1, #50	; 0x32
    2eaa:	d9b5      	bls.n	2e18 <_ZN19ClocklessControllerILi32ELi22ELi22ELi44EL6EOrder66ELi0ELb0ELi50EE10showPixelsER15PixelControllerILS0_66ELi1ELm4294967295EE+0x20c>
    2eac:	6819      	ldr	r1, [r3, #0]
    2eae:	1a51      	subs	r1, r2, r1
    2eb0:	2932      	cmp	r1, #50	; 0x32
    2eb2:	d8f7      	bhi.n	2ea4 <_ZN19ClocklessControllerILi32ELi22ELi22ELi44EL6EOrder66ELi0ELb0ELi50EE10showPixelsER15PixelControllerILS0_66ELi1ELm4294967295EE+0x298>
    2eb4:	e7b0      	b.n	2e18 <_ZN19ClocklessControllerILi32ELi22ELi22ELi44EL6EOrder66ELi0ELb0ELi50EE10showPixelsER15PixelControllerILS0_66ELi1ELm4294967295EE+0x20c>
        template<int SLOT>  __attribute__((always_inline)) inline static uint8_t dither(PixelController & pc, uint8_t b) { return b ? qadd8(b, pc.d[RO(SLOT)]) : 0; }
    2eb6:	468a      	mov	sl, r1
    2eb8:	e788      	b.n	2dcc <_ZN19ClocklessControllerILi32ELi22ELi22ELi44EL6EOrder66ELi0ELb0ELi50EE10showPixelsER15PixelControllerILS0_66ELi1ELm4294967295EE+0x1c0>
    2eba:	468a      	mov	sl, r1
    2ebc:	e753      	b.n	2d66 <_ZN19ClocklessControllerILi32ELi22ELi22ELi44EL6EOrder66ELi0ELb0ELi50EE10showPixelsER15PixelControllerILS0_66ELi1ELm4294967295EE+0x15a>
    2ebe:	468a      	mov	sl, r1
			sei();
    2ec0:	b662      	cpsie	i
		while(pixels.has(1)) {
    2ec2:	2c00      	cmp	r4, #0
    2ec4:	d1bd      	bne.n	2e42 <_ZN19ClocklessControllerILi32ELi22ELi22ELi44EL6EOrder66ELi0ELb0ELi50EE10showPixelsER15PixelControllerILS0_66ELi1ELm4294967295EE+0x236>
			#endif
		};

		sei();
    2ec6:	b662      	cpsie	i
		return ARM_DWT_CYCCNT;
    2ec8:	4b06      	ldr	r3, [pc, #24]	; (2ee4 <_ZN19ClocklessControllerILi32ELi22ELi22ELi44EL6EOrder66ELi0ELb0ELi50EE10showPixelsER15PixelControllerILS0_66ELi1ELm4294967295EE+0x2d8>)
    2eca:	681b      	ldr	r3, [r3, #0]
		if(!showRGBInternal(pixels)) {
    2ecc:	b1cb      	cbz	r3, 2f02 <_ZN19ClocklessControllerILi32ELi22ELi22ELi44EL6EOrder66ELi0ELb0ELi50EE10showPixelsER15PixelControllerILS0_66ELi1ELm4294967295EE+0x2f6>
		} while(diff < WAIT);
	}

	void mark() { mLastMicros = micros() & 0xFFFF; }
    2ece:	f004 f86f 	bl	6fb0 <micros>
    2ed2:	9a09      	ldr	r2, [sp, #36]	; 0x24
    2ed4:	8410      	strh	r0, [r2, #32]
  }
    2ed6:	b00b      	add	sp, #44	; 0x2c
    2ed8:	e8bd 8ff0 	ldmia.w	sp!, {r4, r5, r6, r7, r8, r9, sl, fp, pc}
    2edc:	e000edfc 	.word	0xe000edfc
    2ee0:	e0001000 	.word	0xe0001000
    2ee4:	e0001004 	.word	0xe0001004
    2ee8:	400ff040 	.word	0x400ff040
    2eec:	fa83 f35c 	uqadd8	r3, r3, ip
    2ef0:	3201      	adds	r2, #1
    2ef2:	b2db      	uxtb	r3, r3
    2ef4:	fb02 f303 	mul.w	r3, r2, r3
    2ef8:	9206      	str	r2, [sp, #24]
    2efa:	f3c3 2a07 	ubfx	sl, r3, #8, #8
    2efe:	e6cc      	b.n	2c9a <_ZN19ClocklessControllerILi32ELi22ELi22ELi44EL6EOrder66ELi0ELb0ELi50EE10showPixelsER15PixelControllerILS0_66ELi1ELm4294967295EE+0x8e>
				if((ARM_DWT_CYCCNT-next_mark) > ((WAIT_TIME-INTERRUPT_THRESHOLD)*CLKS_PER_US)) { sei(); return 0; }
    2f00:	b662      	cpsie	i
      sei(); delayMicroseconds(WAIT_TIME); cli();
    2f02:	b662      	cpsie	i
#else
		"subs   %0, #1"				"\n\t"
#endif
		"bne    L_%=_delayMicroseconds"		"\n"
		: "+r" (n) :
	);
    2f04:	f44f 6396 	mov.w	r3, #1200	; 0x4b0

00002f08 <L_3144_delayMicroseconds>:
    2f08:	3b01      	subs	r3, #1
    2f0a:	f47f affd 	bne.w	2f08 <L_3144_delayMicroseconds>
    2f0e:	b672      	cpsid	i
		ARM_DEMCR    |= ARM_DEMCR_TRCENA;
    2f10:	4bb2      	ldr	r3, [pc, #712]	; (31dc <L_3144_delayMicroseconds+0x2d4>)
            d[0] = other.d[0];
    2f12:	9e01      	ldr	r6, [sp, #4]
    2f14:	681d      	ldr	r5, [r3, #0]
            e[0] = other.e[0];
    2f16:	f896 900f 	ldrb.w	r9, [r6, #15]
            e[1] = other.e[1];
    2f1a:	f896 a010 	ldrb.w	sl, [r6, #16]
            e[0] = other.e[0];
    2f1e:	f8cd 900c 	str.w	r9, [sp, #12]
            mLenRemaining = mLen = other.mLen;
    2f22:	f8dd 9004 	ldr.w	r9, [sp, #4]
            e[2] = other.e[2];
    2f26:	f896 b011 	ldrb.w	fp, [r6, #17]
    2f2a:	7d31      	ldrb	r1, [r6, #20]
            d[1] = other.d[1];
    2f2c:	7b74      	ldrb	r4, [r6, #13]
            e[1] = other.e[1];
    2f2e:	f8cd a008 	str.w	sl, [sp, #8]
            mData = other.mData;
    2f32:	6837      	ldr	r7, [r6, #0]
            d[0] = other.d[0];
    2f34:	f896 800c 	ldrb.w	r8, [r6, #12]
            d[2] = other.d[2];
    2f38:	f896 e00e 	ldrb.w	lr, [r6, #14]
        r = rhs.r;
    2f3c:	f896 a012 	ldrb.w	sl, [r6, #18]
        g = rhs.g;
    2f40:	7cf2      	ldrb	r2, [r6, #19]
		ARM_DWT_CTRL |= ARM_DWT_CTRL_CYCCNTENA;
    2f42:	48a7      	ldr	r0, [pc, #668]	; (31e0 <L_3144_delayMicroseconds+0x2d8>)
            mAdvance = other.mAdvance;
    2f44:	7d76      	ldrb	r6, [r6, #21]
            e[2] = other.e[2];
    2f46:	f8cd b010 	str.w	fp, [sp, #16]
		ARM_DEMCR    |= ARM_DEMCR_TRCENA;
    2f4a:	f045 7580 	orr.w	r5, r5, #16777216	; 0x1000000
        b = rhs.b;
    2f4e:	9106      	str	r1, [sp, #24]
            mAdvance = other.mAdvance;
    2f50:	9605      	str	r6, [sp, #20]
            mLenRemaining = mLen = other.mLen;
    2f52:	f8d9 1004 	ldr.w	r1, [r9, #4]
    2f56:	601d      	str	r5, [r3, #0]
		ARM_DWT_CTRL |= ARM_DWT_CTRL_CYCCNTENA;
    2f58:	6806      	ldr	r6, [r0, #0]
		ARM_DWT_CYCCNT = 0;
    2f5a:	4da2      	ldr	r5, [pc, #648]	; (31e4 <L_3144_delayMicroseconds+0x2dc>)
		register data_t hi = *port | FastPin<DATA_PIN>::mask();;
    2f5c:	4ba2      	ldr	r3, [pc, #648]	; (31e8 <L_3144_delayMicroseconds+0x2e0>)
            d[RO(0)] = e[RO(0)] - d[RO(0)];
    2f5e:	f8dd b008 	ldr.w	fp, [sp, #8]
		ARM_DWT_CTRL |= ARM_DWT_CTRL_CYCCNTENA;
    2f62:	f046 0601 	orr.w	r6, r6, #1
    2f66:	6006      	str	r6, [r0, #0]
		ARM_DWT_CYCCNT = 0;
    2f68:	2000      	movs	r0, #0
    2f6a:	6028      	str	r0, [r5, #0]
		register data_t hi = *port | FastPin<DATA_PIN>::mask();;
    2f6c:	6818      	ldr	r0, [r3, #0]
		register data_t lo = *port & ~FastPin<DATA_PIN>::mask();;
    2f6e:	6818      	ldr	r0, [r3, #0]
    2f70:	f420 2080 	bic.w	r0, r0, #262144	; 0x40000
		*port = lo;
    2f74:	6018      	str	r0, [r3, #0]
        template<int SLOT>  __attribute__((always_inline)) inline static uint8_t loadByte(PixelController & pc) { return pc.mData[RO(SLOT)]; }
    2f76:	787b      	ldrb	r3, [r7, #1]
            d[RO(0)] = e[RO(0)] - d[RO(0)];
    2f78:	ebc4 040b 	rsb	r4, r4, fp
    2f7c:	fa5f fc84 	uxtb.w	ip, r4
        template<int SLOT>  __attribute__((always_inline)) inline static uint8_t dither(PixelController & pc, uint8_t b) { return b ? qadd8(b, pc.d[RO(SLOT)]) : 0; }
    2f80:	2b00      	cmp	r3, #0
    2f82:	f040 8112 	bne.w	31aa <L_3144_delayMicroseconds+0x2a2>
    2f86:	3201      	adds	r2, #1
    2f88:	9201      	str	r2, [sp, #4]
    2f8a:	4699      	mov	r9, r3
		cli();
    2f8c:	b672      	cpsid	i
		uint32_t next_mark = ARM_DWT_CYCCNT + (T1+T2+T3);
    2f8e:	4b95      	ldr	r3, [pc, #596]	; (31e4 <L_3144_delayMicroseconds+0x2dc>)
    2f90:	681a      	ldr	r2, [r3, #0]
		while(pixels.has(1)) {
    2f92:	2900      	cmp	r1, #0
		uint32_t next_mark = ARM_DWT_CYCCNT + (T1+T2+T3);
    2f94:	f102 0258 	add.w	r2, r2, #88	; 0x58
		while(pixels.has(1)) {
    2f98:	f340 8119 	ble.w	31ce <L_3144_delayMicroseconds+0x2c6>
    2f9c:	f10a 0a01 	add.w	sl, sl, #1
			hi = *port | FastPin<DATA_PIN>::mask();
    2fa0:	4891      	ldr	r0, [pc, #580]	; (31e8 <L_3144_delayMicroseconds+0x2e0>)
    2fa2:	f8cd a01c 	str.w	sl, [sp, #28]
		while(pixels.has(1)) {
    2fa6:	468b      	mov	fp, r1
			while(ARM_DWT_CYCCNT < next_mark);
    2fa8:	461d      	mov	r5, r3
                d[0] = e[0] - d[0];
    2faa:	9903      	ldr	r1, [sp, #12]
                d[1] = e[1] - d[1];
    2fac:	9c02      	ldr	r4, [sp, #8]
                d[2] = e[2] - d[2];
    2fae:	9e04      	ldr	r6, [sp, #16]
                d[0] = e[0] - d[0];
    2fb0:	ebc8 0801 	rsb	r8, r8, r1
                d[1] = e[1] - d[1];
    2fb4:	ebcc 0c04 	rsb	ip, ip, r4
                d[2] = e[2] - d[2];
    2fb8:	ebce 0e06 	rsb	lr, lr, r6
                d[0] = e[0] - d[0];
    2fbc:	fa5f f888 	uxtb.w	r8, r8
                d[1] = e[1] - d[1];
    2fc0:	fa5f fc8c 	uxtb.w	ip, ip
                d[2] = e[2] - d[2];
    2fc4:	fa5f fe8e 	uxtb.w	lr, lr
			cli();
    2fc8:	b672      	cpsid	i
			if(ARM_DWT_CYCCNT > next_mark) {
    2fca:	6819      	ldr	r1, [r3, #0]
    2fcc:	4291      	cmp	r1, r2
    2fce:	d906      	bls.n	2fde <L_3144_delayMicroseconds+0xd6>
				if((ARM_DWT_CYCCNT-next_mark) > ((WAIT_TIME-INTERRUPT_THRESHOLD)*CLKS_PER_US)) { sei(); return 0; }
    2fd0:	6819      	ldr	r1, [r3, #0]
    2fd2:	f640 5ac8 	movw	sl, #3528	; 0xdc8
    2fd6:	1a89      	subs	r1, r1, r2
    2fd8:	4551      	cmp	r1, sl
    2fda:	f200 80fc 	bhi.w	31d6 <L_3144_delayMicroseconds+0x2ce>
			hi = *port | FastPin<DATA_PIN>::mask();
    2fde:	6804      	ldr	r4, [r0, #0]
			lo = *port & ~FastPin<DATA_PIN>::mask();
    2fe0:	6806      	ldr	r6, [r0, #0]
			hi = *port | FastPin<DATA_PIN>::mask();
    2fe2:	f444 2480 	orr.w	r4, r4, #262144	; 0x40000
			lo = *port & ~FastPin<DATA_PIN>::mask();
    2fe6:	f426 2680 	bic.w	r6, r6, #262144	; 0x40000
    2fea:	f04f 0a07 	mov.w	sl, #7
			while(ARM_DWT_CYCCNT < next_mark);
    2fee:	6819      	ldr	r1, [r3, #0]
    2ff0:	4291      	cmp	r1, r2
    2ff2:	d3fc      	bcc.n	2fee <L_3144_delayMicroseconds+0xe6>
			next_mark = ARM_DWT_CYCCNT + (T1+T2+T3);
    2ff4:	682a      	ldr	r2, [r5, #0]
    2ff6:	6004      	str	r4, [r0, #0]
			if(b&0x80) {
    2ff8:	f019 0f80 	tst.w	r9, #128	; 0x80
			next_mark = ARM_DWT_CYCCNT + (T1+T2+T3);
    2ffc:	f102 0258 	add.w	r2, r2, #88	; 0x58
			if(b&0x80) {
    3000:	f040 809b 	bne.w	313a <L_3144_delayMicroseconds+0x232>
				while((next_mark - ARM_DWT_CYCCNT) > (T2+T3+(2*(F_CPU/24000000))));
    3004:	6819      	ldr	r1, [r3, #0]
    3006:	1a51      	subs	r1, r2, r1
    3008:	2948      	cmp	r1, #72	; 0x48
    300a:	d8fb      	bhi.n	3004 <L_3144_delayMicroseconds+0xfc>
			b <<= 1;
    300c:	ea4f 0949 	mov.w	r9, r9, lsl #1
		for(register uint32_t i = BITS-1; i > 0; i--) {
    3010:	f1ba 0a01 	subs.w	sl, sl, #1
    3014:	6006      	str	r6, [r0, #0]
			b <<= 1;
    3016:	fa5f f989 	uxtb.w	r9, r9
		for(register uint32_t i = BITS-1; i > 0; i--) {
    301a:	d1e8      	bne.n	2fee <L_3144_delayMicroseconds+0xe6>
		while(ARM_DWT_CYCCNT < next_mark);
    301c:	6819      	ldr	r1, [r3, #0]
    301e:	4291      	cmp	r1, r2
    3020:	d3fc      	bcc.n	301c <L_3144_delayMicroseconds+0x114>
		next_mark = ARM_DWT_CYCCNT + (T1+T2+T3);
    3022:	682a      	ldr	r2, [r5, #0]
    3024:	6004      	str	r4, [r0, #0]
		if(b&0x80) {
    3026:	f019 0f80 	tst.w	r9, #128	; 0x80
		next_mark = ARM_DWT_CYCCNT + (T1+T2+T3);
    302a:	f102 0258 	add.w	r2, r2, #88	; 0x58
		if(b&0x80) {
    302e:	f040 808e 	bne.w	314e <L_3144_delayMicroseconds+0x246>
			while((next_mark - ARM_DWT_CYCCNT) > (T2+T3+(2*(F_CPU/24000000))));
    3032:	6819      	ldr	r1, [r3, #0]
    3034:	1a51      	subs	r1, r2, r1
    3036:	2948      	cmp	r1, #72	; 0x48
    3038:	d8fb      	bhi.n	3032 <L_3144_delayMicroseconds+0x12a>
    303a:	6006      	str	r6, [r0, #0]
        template<int SLOT>  __attribute__((always_inline)) inline static uint8_t loadByte(PixelController & pc) { return pc.mData[RO(SLOT)]; }
    303c:	7839      	ldrb	r1, [r7, #0]
        template<int SLOT>  __attribute__((always_inline)) inline static uint8_t dither(PixelController & pc, uint8_t b) { return b ? qadd8(b, pc.d[RO(SLOT)]) : 0; }
    303e:	2900      	cmp	r1, #0
    3040:	f000 80bf 	beq.w	31c2 <L_3144_delayMicroseconds+0x2ba>
    3044:	fa81 f158 	uqadd8	r1, r1, r8
    3048:	f8dd a01c 	ldr.w	sl, [sp, #28]
    304c:	b2c9      	uxtb	r1, r1
    304e:	fb0a f901 	mul.w	r9, sl, r1
    3052:	f3c9 2907 	ubfx	r9, r9, #8, #8
    3056:	f04f 0a07 	mov.w	sl, #7
			while(ARM_DWT_CYCCNT < next_mark);
    305a:	6819      	ldr	r1, [r3, #0]
    305c:	4291      	cmp	r1, r2
    305e:	d3fc      	bcc.n	305a <L_3144_delayMicroseconds+0x152>
			next_mark = ARM_DWT_CYCCNT + (T1+T2+T3);
    3060:	682a      	ldr	r2, [r5, #0]
    3062:	6004      	str	r4, [r0, #0]
			if(b&0x80) {
    3064:	f019 0f80 	tst.w	r9, #128	; 0x80
			next_mark = ARM_DWT_CYCCNT + (T1+T2+T3);
    3068:	f102 0258 	add.w	r2, r2, #88	; 0x58
			if(b&0x80) {
    306c:	d179      	bne.n	3162 <L_3144_delayMicroseconds+0x25a>
				while((next_mark - ARM_DWT_CYCCNT) > (T2+T3+(2*(F_CPU/24000000))));
    306e:	6819      	ldr	r1, [r3, #0]
    3070:	1a51      	subs	r1, r2, r1
    3072:	2948      	cmp	r1, #72	; 0x48
    3074:	d8fb      	bhi.n	306e <L_3144_delayMicroseconds+0x166>
			b <<= 1;
    3076:	ea4f 0949 	mov.w	r9, r9, lsl #1
		for(register uint32_t i = BITS-1; i > 0; i--) {
    307a:	f1ba 0a01 	subs.w	sl, sl, #1
    307e:	6006      	str	r6, [r0, #0]
			b <<= 1;
    3080:	fa5f f989 	uxtb.w	r9, r9
		for(register uint32_t i = BITS-1; i > 0; i--) {
    3084:	d1e9      	bne.n	305a <L_3144_delayMicroseconds+0x152>
		while(ARM_DWT_CYCCNT < next_mark);
    3086:	6819      	ldr	r1, [r3, #0]
    3088:	4291      	cmp	r1, r2
    308a:	d3fc      	bcc.n	3086 <L_3144_delayMicroseconds+0x17e>
		next_mark = ARM_DWT_CYCCNT + (T1+T2+T3);
    308c:	682a      	ldr	r2, [r5, #0]
    308e:	6004      	str	r4, [r0, #0]
		if(b&0x80) {
    3090:	f019 0f80 	tst.w	r9, #128	; 0x80
		next_mark = ARM_DWT_CYCCNT + (T1+T2+T3);
    3094:	f102 0258 	add.w	r2, r2, #88	; 0x58
		if(b&0x80) {
    3098:	d16c      	bne.n	3174 <L_3144_delayMicroseconds+0x26c>
			while((next_mark - ARM_DWT_CYCCNT) > (T2+T3+(2*(F_CPU/24000000))));
    309a:	6819      	ldr	r1, [r3, #0]
    309c:	1a51      	subs	r1, r2, r1
    309e:	2948      	cmp	r1, #72	; 0x48
    30a0:	d8fb      	bhi.n	309a <L_3144_delayMicroseconds+0x192>
    30a2:	6006      	str	r6, [r0, #0]
        template<int SLOT>  __attribute__((always_inline)) inline static uint8_t loadByte(PixelController & pc) { return pc.mData[RO(SLOT)]; }
    30a4:	78b9      	ldrb	r1, [r7, #2]
        template<int SLOT>  __attribute__((always_inline)) inline static uint8_t dither(PixelController & pc, uint8_t b) { return b ? qadd8(b, pc.d[RO(SLOT)]) : 0; }
    30a6:	2900      	cmp	r1, #0
    30a8:	f000 8089 	beq.w	31be <L_3144_delayMicroseconds+0x2b6>
    30ac:	fa81 f15e 	uqadd8	r1, r1, lr
    30b0:	f8dd 9018 	ldr.w	r9, [sp, #24]
    30b4:	b2c9      	uxtb	r1, r1
    30b6:	fb09 1101 	mla	r1, r9, r1, r1
    30ba:	f3c1 2907 	ubfx	r9, r1, #8, #8
    30be:	f04f 0a07 	mov.w	sl, #7
			while(ARM_DWT_CYCCNT < next_mark);
    30c2:	6819      	ldr	r1, [r3, #0]
    30c4:	4291      	cmp	r1, r2
    30c6:	d3fc      	bcc.n	30c2 <L_3144_delayMicroseconds+0x1ba>
			next_mark = ARM_DWT_CYCCNT + (T1+T2+T3);
    30c8:	682a      	ldr	r2, [r5, #0]
    30ca:	6004      	str	r4, [r0, #0]
			if(b&0x80) {
    30cc:	f019 0f80 	tst.w	r9, #128	; 0x80
			next_mark = ARM_DWT_CYCCNT + (T1+T2+T3);
    30d0:	f102 0258 	add.w	r2, r2, #88	; 0x58
			if(b&0x80) {
    30d4:	d157      	bne.n	3186 <L_3144_delayMicroseconds+0x27e>
				while((next_mark - ARM_DWT_CYCCNT) > (T2+T3+(2*(F_CPU/24000000))));
    30d6:	6819      	ldr	r1, [r3, #0]
    30d8:	1a51      	subs	r1, r2, r1
    30da:	2948      	cmp	r1, #72	; 0x48
    30dc:	d8fb      	bhi.n	30d6 <L_3144_delayMicroseconds+0x1ce>
			b <<= 1;
    30de:	ea4f 0949 	mov.w	r9, r9, lsl #1
		for(register uint32_t i = BITS-1; i > 0; i--) {
    30e2:	f1ba 0a01 	subs.w	sl, sl, #1
    30e6:	6006      	str	r6, [r0, #0]
			b <<= 1;
    30e8:	fa5f f989 	uxtb.w	r9, r9
		for(register uint32_t i = BITS-1; i > 0; i--) {
    30ec:	d1e9      	bne.n	30c2 <L_3144_delayMicroseconds+0x1ba>
		while(ARM_DWT_CYCCNT < next_mark);
    30ee:	6819      	ldr	r1, [r3, #0]
    30f0:	4291      	cmp	r1, r2
    30f2:	d3fc      	bcc.n	30ee <L_3144_delayMicroseconds+0x1e6>
		next_mark = ARM_DWT_CYCCNT + (T1+T2+T3);
    30f4:	682a      	ldr	r2, [r5, #0]
    30f6:	6004      	str	r4, [r0, #0]
		if(b&0x80) {
    30f8:	f019 0f80 	tst.w	r9, #128	; 0x80
		next_mark = ARM_DWT_CYCCNT + (T1+T2+T3);
    30fc:	f102 0258 	add.w	r2, r2, #88	; 0x58
		if(b&0x80) {
    3100:	d14a      	bne.n	3198 <L_3144_delayMicroseconds+0x290>
			while((next_mark - ARM_DWT_CYCCNT) > (T2+T3+(2*(F_CPU/24000000))));
    3102:	6819      	ldr	r1, [r3, #0]
    3104:	1a51      	subs	r1, r2, r1
    3106:	2948      	cmp	r1, #72	; 0x48
    3108:	d8fb      	bhi.n	3102 <L_3144_delayMicroseconds+0x1fa>
         __attribute__((always_inline)) inline void advanceData() { mData += mAdvance; mLenRemaining--;}
    310a:	f8dd a014 	ldr.w	sl, [sp, #20]
    310e:	6006      	str	r6, [r0, #0]
    3110:	fa47 f78a 	sxtab	r7, r7, sl
    3114:	f10b 31ff 	add.w	r1, fp, #4294967295	; 0xffffffff
        template<int SLOT>  __attribute__((always_inline)) inline static uint8_t loadByte(PixelController & pc) { return pc.mData[RO(SLOT)]; }
    3118:	787c      	ldrb	r4, [r7, #1]
        template<int SLOT>  __attribute__((always_inline)) inline static uint8_t dither(PixelController & pc, uint8_t b) { return b ? qadd8(b, pc.d[RO(SLOT)]) : 0; }
    311a:	2c00      	cmp	r4, #0
    311c:	d053      	beq.n	31c6 <L_3144_delayMicroseconds+0x2be>
    311e:	fa84 f45c 	uqadd8	r4, r4, ip
    3122:	f8dd b004 	ldr.w	fp, [sp, #4]
    3126:	b2e4      	uxtb	r4, r4
    3128:	fb0b f904 	mul.w	r9, fp, r4
    312c:	f3c9 2907 	ubfx	r9, r9, #8, #8
			sei();
    3130:	b662      	cpsie	i
		while(pixels.has(1)) {
    3132:	2900      	cmp	r1, #0
    3134:	d04b      	beq.n	31ce <L_3144_delayMicroseconds+0x2c6>
         __attribute__((always_inline)) inline void advanceData() { mData += mAdvance; mLenRemaining--;}
    3136:	468b      	mov	fp, r1
    3138:	e737      	b.n	2faa <L_3144_delayMicroseconds+0xa2>
				while((next_mark - ARM_DWT_CYCCNT) > (T3+(2*(F_CPU/24000000))));
    313a:	6819      	ldr	r1, [r3, #0]
    313c:	1a51      	subs	r1, r2, r1
    313e:	2932      	cmp	r1, #50	; 0x32
    3140:	f67f af64 	bls.w	300c <L_3144_delayMicroseconds+0x104>
    3144:	6819      	ldr	r1, [r3, #0]
    3146:	1a51      	subs	r1, r2, r1
    3148:	2932      	cmp	r1, #50	; 0x32
    314a:	d8f6      	bhi.n	313a <L_3144_delayMicroseconds+0x232>
    314c:	e75e      	b.n	300c <L_3144_delayMicroseconds+0x104>
			while((next_mark - ARM_DWT_CYCCNT) > (T3+(2*(F_CPU/24000000))));
    314e:	6819      	ldr	r1, [r3, #0]
    3150:	1a51      	subs	r1, r2, r1
    3152:	2932      	cmp	r1, #50	; 0x32
    3154:	f67f af71 	bls.w	303a <L_3144_delayMicroseconds+0x132>
    3158:	6819      	ldr	r1, [r3, #0]
    315a:	1a51      	subs	r1, r2, r1
    315c:	2932      	cmp	r1, #50	; 0x32
    315e:	d8f6      	bhi.n	314e <L_3144_delayMicroseconds+0x246>
    3160:	e76b      	b.n	303a <L_3144_delayMicroseconds+0x132>
				while((next_mark - ARM_DWT_CYCCNT) > (T3+(2*(F_CPU/24000000))));
    3162:	6819      	ldr	r1, [r3, #0]
    3164:	1a51      	subs	r1, r2, r1
    3166:	2932      	cmp	r1, #50	; 0x32
    3168:	d985      	bls.n	3076 <L_3144_delayMicroseconds+0x16e>
    316a:	6819      	ldr	r1, [r3, #0]
    316c:	1a51      	subs	r1, r2, r1
    316e:	2932      	cmp	r1, #50	; 0x32
    3170:	d8f7      	bhi.n	3162 <L_3144_delayMicroseconds+0x25a>
    3172:	e780      	b.n	3076 <L_3144_delayMicroseconds+0x16e>
			while((next_mark - ARM_DWT_CYCCNT) > (T3+(2*(F_CPU/24000000))));
    3174:	6819      	ldr	r1, [r3, #0]
    3176:	1a51      	subs	r1, r2, r1
    3178:	2932      	cmp	r1, #50	; 0x32
    317a:	d992      	bls.n	30a2 <L_3144_delayMicroseconds+0x19a>
    317c:	6819      	ldr	r1, [r3, #0]
    317e:	1a51      	subs	r1, r2, r1
    3180:	2932      	cmp	r1, #50	; 0x32
    3182:	d8f7      	bhi.n	3174 <L_3144_delayMicroseconds+0x26c>
    3184:	e78d      	b.n	30a2 <L_3144_delayMicroseconds+0x19a>
				while((next_mark - ARM_DWT_CYCCNT) > (T3+(2*(F_CPU/24000000))));
    3186:	6819      	ldr	r1, [r3, #0]
    3188:	1a51      	subs	r1, r2, r1
    318a:	2932      	cmp	r1, #50	; 0x32
    318c:	d9a7      	bls.n	30de <L_3144_delayMicroseconds+0x1d6>
    318e:	6819      	ldr	r1, [r3, #0]
    3190:	1a51      	subs	r1, r2, r1
    3192:	2932      	cmp	r1, #50	; 0x32
    3194:	d8f7      	bhi.n	3186 <L_3144_delayMicroseconds+0x27e>
    3196:	e7a2      	b.n	30de <L_3144_delayMicroseconds+0x1d6>
			while((next_mark - ARM_DWT_CYCCNT) > (T3+(2*(F_CPU/24000000))));
    3198:	6819      	ldr	r1, [r3, #0]
    319a:	1a51      	subs	r1, r2, r1
    319c:	2932      	cmp	r1, #50	; 0x32
    319e:	d9b4      	bls.n	310a <L_3144_delayMicroseconds+0x202>
    31a0:	6819      	ldr	r1, [r3, #0]
    31a2:	1a51      	subs	r1, r2, r1
    31a4:	2932      	cmp	r1, #50	; 0x32
    31a6:	d8f7      	bhi.n	3198 <L_3144_delayMicroseconds+0x290>
    31a8:	e7af      	b.n	310a <L_3144_delayMicroseconds+0x202>
    31aa:	fa83 f35c 	uqadd8	r3, r3, ip
    31ae:	3201      	adds	r2, #1
    31b0:	b2db      	uxtb	r3, r3
    31b2:	fb02 f303 	mul.w	r3, r2, r3
    31b6:	9201      	str	r2, [sp, #4]
    31b8:	f3c3 2907 	ubfx	r9, r3, #8, #8
    31bc:	e6e6      	b.n	2f8c <L_3144_delayMicroseconds+0x84>
        template<int SLOT>  __attribute__((always_inline)) inline static uint8_t dither(PixelController & pc, uint8_t b) { return b ? qadd8(b, pc.d[RO(SLOT)]) : 0; }
    31be:	4689      	mov	r9, r1
    31c0:	e77d      	b.n	30be <L_3144_delayMicroseconds+0x1b6>
    31c2:	4689      	mov	r9, r1
    31c4:	e747      	b.n	3056 <L_3144_delayMicroseconds+0x14e>
    31c6:	46a1      	mov	r9, r4
			sei();
    31c8:	b662      	cpsie	i
		while(pixels.has(1)) {
    31ca:	2900      	cmp	r1, #0
    31cc:	d1b3      	bne.n	3136 <L_3144_delayMicroseconds+0x22e>
		sei();
    31ce:	b662      	cpsie	i
		return ARM_DWT_CYCCNT;
    31d0:	4b04      	ldr	r3, [pc, #16]	; (31e4 <L_3144_delayMicroseconds+0x2dc>)
    31d2:	681b      	ldr	r3, [r3, #0]
    31d4:	e67b      	b.n	2ece <_ZN19ClocklessControllerILi32ELi22ELi22ELi44EL6EOrder66ELi0ELb0ELi50EE10showPixelsER15PixelControllerILS0_66ELi1ELm4294967295EE+0x2c2>
				if((ARM_DWT_CYCCNT-next_mark) > ((WAIT_TIME-INTERRUPT_THRESHOLD)*CLKS_PER_US)) { sei(); return 0; }
    31d6:	b662      	cpsie	i
    31d8:	e679      	b.n	2ece <_ZN19ClocklessControllerILi32ELi22ELi22ELi44EL6EOrder66ELi0ELb0ELi50EE10showPixelsER15PixelControllerILS0_66ELi1ELm4294967295EE+0x2c2>
    31da:	bf00      	nop
    31dc:	e000edfc 	.word	0xe000edfc
    31e0:	e0001000 	.word	0xe0001000
    31e4:	e0001004 	.word	0xe0001004
    31e8:	400ff040 	.word	0x400ff040

000031ec <_ZN11TouchSensor14updateBaselineEv>:

    TouchSensor(int pin) : pin(pin)  {
      _threshold = 50;
      _cnt = 0;
    }
    void updateBaseline() {
    31ec:	b570      	push	{r4, r5, r6, lr}
        if(_baselineIndex >= NUM_SAMPLES) { _baselineIndex = 0; }
    31ee:	6cc4      	ldr	r4, [r0, #76]	; 0x4c
        if(_cnt < NUM_SAMPLES) { _cnt++; }
    31f0:	6843      	ldr	r3, [r0, #4]
        if(_baselineIndex >= NUM_SAMPLES) { _baselineIndex = 0; }
    31f2:	2c0f      	cmp	r4, #15
    31f4:	bfc4      	itt	gt
    31f6:	2400      	movgt	r4, #0
    31f8:	64c4      	strgt	r4, [r0, #76]	; 0x4c
        if(_cnt < NUM_SAMPLES) { _cnt++; }
    31fa:	2b0f      	cmp	r3, #15
    void updateBaseline() {
    31fc:	4605      	mov	r5, r0
        if(_cnt < NUM_SAMPLES) { _cnt++; }
    31fe:	bfdc      	itt	le
    3200:	3301      	addle	r3, #1
    3202:	6043      	strle	r3, [r0, #4]
        return _threshold;
    }

    int TSIRead(int8_t pin)
    {
      return touchRead(pin);
    3204:	7800      	ldrb	r0, [r0, #0]
    3206:	f005 f9a1 	bl	854c <touchRead>
        _baselineIndex++;
    320a:	6ceb      	ldr	r3, [r5, #76]	; 0x4c
        for(int i = 0; i < _cnt; i++) {
    320c:	686e      	ldr	r6, [r5, #4]
        _baselineValues[_baselineIndex] = TSIRead(pin);
    320e:	eb05 0484 	add.w	r4, r5, r4, lsl #2
        _baselineIndex++;
    3212:	3301      	adds	r3, #1
        for(int i = 0; i < _cnt; i++) {
    3214:	2e00      	cmp	r6, #0
        _baselineValues[_baselineIndex] = TSIRead(pin);
    3216:	60e0      	str	r0, [r4, #12]
        _baselineIndex++;
    3218:	64eb      	str	r3, [r5, #76]	; 0x4c
        for(int i = 0; i < _cnt; i++) {
    321a:	dd0c      	ble.n	3236 <_ZN11TouchSensor14updateBaselineEv+0x4a>
    321c:	462b      	mov	r3, r5
    321e:	eb05 0486 	add.w	r4, r5, r6, lsl #2
        int sum = 0;
    3222:	2200      	movs	r2, #0
          sum += _baselineValues[i];
    3224:	68d9      	ldr	r1, [r3, #12]
    3226:	3304      	adds	r3, #4
        for(int i = 0; i < _cnt; i++) {
    3228:	42a3      	cmp	r3, r4
          sum += _baselineValues[i];
    322a:	440a      	add	r2, r1
        for(int i = 0; i < _cnt; i++) {
    322c:	d1fa      	bne.n	3224 <_ZN11TouchSensor14updateBaselineEv+0x38>
        _baseline = sum / _cnt;
    322e:	fb92 f2f6 	sdiv	r2, r2, r6
    3232:	60aa      	str	r2, [r5, #8]
    3234:	bd70      	pop	{r4, r5, r6, pc}
        int sum = 0;
    3236:	2200      	movs	r2, #0
    3238:	e7f9      	b.n	322e <_ZN11TouchSensor14updateBaselineEv+0x42>
    323a:	bf00      	nop

0000323c <_Z13muxAnalogReadh>:
int muxAnalogRead(uint8_t channel) { 
  // Any call to pinMode sets the port mux to GPIO mode.
  // We want to force it back to analog mode
  // Might be equivalent to pinMode(MUX_IO, INPUT_DISABLE);
  volatile uint32_t *config;
  config = portConfigRegister(MUX_IO);
    323c:	4b0f      	ldr	r3, [pc, #60]	; (327c <L_4771_delayMicroseconds+0xc>)
    323e:	f8d3 30ec 	ldr.w	r3, [r3, #236]	; 0xec
		if (val) {
    3242:	07c1      	lsls	r1, r0, #31
  *config = PORT_PCR_MUX(0);
    3244:	f04f 0200 	mov.w	r2, #0
    3248:	601a      	str	r2, [r3, #0]
				CORE_PIN33_PORTSET = CORE_PIN33_BITMASK;
    324a:	bf4c      	ite	mi
    324c:	4b0c      	ldrmi	r3, [pc, #48]	; (3280 <L_4771_delayMicroseconds+0x10>)
				CORE_PIN33_PORTCLEAR = CORE_PIN33_BITMASK;
    324e:	4b0d      	ldrpl	r3, [pc, #52]	; (3284 <L_4771_delayMicroseconds+0x14>)
    3250:	2210      	movs	r2, #16
    3252:	601a      	str	r2, [r3, #0]
		if (val) {
    3254:	0782      	lsls	r2, r0, #30
				CORE_PIN24_PORTSET = CORE_PIN24_BITMASK;
    3256:	bf4c      	ite	mi
    3258:	4b09      	ldrmi	r3, [pc, #36]	; (3280 <L_4771_delayMicroseconds+0x10>)
				CORE_PIN24_PORTCLEAR = CORE_PIN24_BITMASK;
    325a:	4b0a      	ldrpl	r3, [pc, #40]	; (3284 <L_4771_delayMicroseconds+0x14>)
    325c:	2220      	movs	r2, #32
    325e:	601a      	str	r2, [r3, #0]
		if (val) {
    3260:	0743      	lsls	r3, r0, #29
				CORE_PIN3_PORTSET = CORE_PIN3_BITMASK;
    3262:	bf4c      	ite	mi
    3264:	4b06      	ldrmi	r3, [pc, #24]	; (3280 <L_4771_delayMicroseconds+0x10>)
				CORE_PIN3_PORTCLEAR = CORE_PIN3_BITMASK;
    3266:	4b07      	ldrpl	r3, [pc, #28]	; (3284 <L_4771_delayMicroseconds+0x14>)
    3268:	f44f 5280 	mov.w	r2, #4096	; 0x1000
    326c:	601a      	str	r2, [r3, #0]
	);
    326e:	2378      	movs	r3, #120	; 0x78

00003270 <L_4771_delayMicroseconds>:
    3270:	3b01      	subs	r3, #1
    3272:	f47f affd 	bne.w	3270 <L_4771_delayMicroseconds>
  digitalWriteFast(SYN_ADDR0, bitRead(channel,0));
  digitalWriteFast(SYN_ADDR1, bitRead(channel,1));
  digitalWriteFast(SYN_ADDR2, bitRead(channel,2));
  //do we need to wait a few nanoseconds?
  delayMicroseconds(5);
  return analogRead(MUX_IO);
    3276:	201d      	movs	r0, #29
    3278:	f003 bbde 	b.w	6a38 <analogRead>
    327c:	00011b14 	.word	0x00011b14
    3280:	400ff004 	.word	0x400ff004
    3284:	400ff008 	.word	0x400ff008

00003288 <_Z14muxDigitalReadh>:
}

uint8_t muxDigitalRead(uint8_t channel) { 
    3288:	b510      	push	{r4, lr}
  pinMode(MUX_IO, INPUT_PULLUP);
    328a:	2102      	movs	r1, #2
uint8_t muxDigitalRead(uint8_t channel) { 
    328c:	4604      	mov	r4, r0
  pinMode(MUX_IO, INPUT_PULLUP);
    328e:	201d      	movs	r0, #29
    3290:	f003 fe88 	bl	6fa4 <pinMode>
		if (val) {
    3294:	07e1      	lsls	r1, r4, #31
				CORE_PIN33_PORTSET = CORE_PIN33_BITMASK;
    3296:	bf4c      	ite	mi
    3298:	4b0c      	ldrmi	r3, [pc, #48]	; (32cc <L_4859_delayMicroseconds+0x10>)
				CORE_PIN33_PORTCLEAR = CORE_PIN33_BITMASK;
    329a:	4b0d      	ldrpl	r3, [pc, #52]	; (32d0 <L_4859_delayMicroseconds+0x14>)
    329c:	2210      	movs	r2, #16
    329e:	601a      	str	r2, [r3, #0]
		if (val) {
    32a0:	07a2      	lsls	r2, r4, #30
				CORE_PIN24_PORTSET = CORE_PIN24_BITMASK;
    32a2:	bf4c      	ite	mi
    32a4:	4b09      	ldrmi	r3, [pc, #36]	; (32cc <L_4859_delayMicroseconds+0x10>)
				CORE_PIN24_PORTCLEAR = CORE_PIN24_BITMASK;
    32a6:	4b0a      	ldrpl	r3, [pc, #40]	; (32d0 <L_4859_delayMicroseconds+0x14>)
    32a8:	2220      	movs	r2, #32
    32aa:	601a      	str	r2, [r3, #0]
		if (val) {
    32ac:	0763      	lsls	r3, r4, #29
				CORE_PIN3_PORTSET = CORE_PIN3_BITMASK;
    32ae:	bf4c      	ite	mi
    32b0:	4b06      	ldrmi	r3, [pc, #24]	; (32cc <L_4859_delayMicroseconds+0x10>)
				CORE_PIN3_PORTCLEAR = CORE_PIN3_BITMASK;
    32b2:	4b07      	ldrpl	r3, [pc, #28]	; (32d0 <L_4859_delayMicroseconds+0x14>)
    32b4:	f44f 5280 	mov.w	r2, #4096	; 0x1000
    32b8:	601a      	str	r2, [r3, #0]
	);
    32ba:	23f0      	movs	r3, #240	; 0xf0

000032bc <L_4859_delayMicroseconds>:
    32bc:	3b01      	subs	r3, #1
    32be:	f47f affd 	bne.w	32bc <L_4859_delayMicroseconds>
  digitalWriteFast(SYN_ADDR0, bitRead(channel,0));
  digitalWriteFast(SYN_ADDR1, bitRead(channel,1));
  digitalWriteFast(SYN_ADDR2, bitRead(channel,2));
  delayMicroseconds(10);
  //Wait a few microseconds for the selection to propagate. 
  uint8_t p = digitalRead(MUX_IO);
    32c2:	201d      	movs	r0, #29
  return p;
}
    32c4:	e8bd 4010 	ldmia.w	sp!, {r4, lr}
  uint8_t p = digitalRead(MUX_IO);
    32c8:	f003 be5e 	b.w	6f88 <digitalRead>
    32cc:	400ff004 	.word	0x400ff004
    32d0:	400ff008 	.word	0x400ff008

000032d4 <_Z9pins_initv>:

void pins_init() {
    32d4:	b508      	push	{r3, lr}
  // PROG pin is unused but connected to reset via a resistor. Make output to be sure.
  pinMode(PROG, INPUT);
    32d6:	201f      	movs	r0, #31
    32d8:	2100      	movs	r1, #0
    32da:	f003 fe63 	bl	6fa4 <pinMode>

  pinMode(BITC_PIN, INPUT_PULLUP);
    32de:	201e      	movs	r0, #30
    32e0:	2102      	movs	r1, #2
    32e2:	f003 fe5f 	bl	6fa4 <pinMode>
  pinMode(ACCENT_PIN, INPUT_PULLUP);
    32e6:	2008      	movs	r0, #8
    32e8:	2102      	movs	r1, #2
    32ea:	f003 fe5b 	bl	6fa4 <pinMode>

  pinMode(SYNC_OUT_PIN, OUTPUT);
    32ee:	2007      	movs	r0, #7
    32f0:	2101      	movs	r1, #1
    32f2:	f003 fe57 	bl	6fa4 <pinMode>
  // pinMode(AMP_ENABLE, OUTPUT);
  pinMode(HP_ENABLE, OUTPUT);
    32f6:	2004      	movs	r0, #4
    32f8:	2101      	movs	r1, #1
    32fa:	f003 fe53 	bl	6fa4 <pinMode>
  pinMode(SYNC_IN, INPUT);
    32fe:	200e      	movs	r0, #14
    3300:	2100      	movs	r1, #0
    3302:	f003 fe4f 	bl	6fa4 <pinMode>

  pinMode(JACK_DETECT, INPUT);
    3306:	201a      	movs	r0, #26
    3308:	2100      	movs	r1, #0
    330a:	f003 fe4b 	bl	6fa4 <pinMode>
  pinMode(SYNC_DETECT, INPUT);
    330e:	2002      	movs	r0, #2
    3310:	2100      	movs	r1, #0
    3312:	f003 fe47 	bl	6fa4 <pinMode>

  pinMode(SYN_ADDR0, OUTPUT);
    3316:	2021      	movs	r0, #33	; 0x21
    3318:	2101      	movs	r1, #1
    331a:	f003 fe43 	bl	6fa4 <pinMode>
  pinMode(SYN_ADDR1, OUTPUT);
    331e:	2018      	movs	r0, #24
    3320:	2101      	movs	r1, #1
    3322:	f003 fe3f 	bl	6fa4 <pinMode>
  pinMode(SYN_ADDR2, OUTPUT);
    3326:	2003      	movs	r0, #3
    3328:	2101      	movs	r1, #1
    332a:	f003 fe3b 	bl	6fa4 <pinMode>

  randomSeed(analogRead(UNCONNECTED_ANALOG));
    332e:	200d      	movs	r0, #13
    3330:	f003 fb82 	bl	6a38 <analogRead>
    3334:	e8bd 4008 	ldmia.w	sp!, {r3, lr}
  randomSeed(analogRead(UNCONNECTED_ANALOG));
    3338:	f006 be9e 	b.w	a078 <_Z10randomSeedm>

0000333c <_Z9midi_initv>:
void midi_init() {
    333c:	b5f8      	push	{r3, r4, r5, r6, r7, lr}
    mSerial.begin(Settings::BaudRate);
    333e:	4c18      	ldr	r4, [pc, #96]	; (33a0 <_Z9midi_initv+0x64>)
        };
        inline void setHandleNoteOff(void (*fptr)(uint8_t channel, uint8_t note, uint8_t velocity)) {
                usb_midi_handleNoteOff = fptr;
        };
        inline void setHandleNoteOn(void (*fptr)(uint8_t channel, uint8_t note, uint8_t velocity)) {
                usb_midi_handleNoteOn = fptr;
    3340:	4e18      	ldr	r6, [pc, #96]	; (33a4 <_Z9midi_initv+0x68>)
    3342:	6ca0      	ldr	r0, [r4, #72]	; 0x48
                usb_midi_handleNoteOff = fptr;
    3344:	4d18      	ldr	r5, [pc, #96]	; (33a8 <_Z9midi_initv+0x6c>)
    3346:	6803      	ldr	r3, [r0, #0]
template<class SerialPort, class Settings> void MidiInterface<SerialPort, Settings>::setHandleSystemExclusive(void (*fptr)(byte* array, unsigned size))              { mSystemExclusiveCallback      = fptr; }
template<class SerialPort, class Settings> void MidiInterface<SerialPort, Settings>::setHandleTimeCodeQuarterFrame(void (*fptr)(byte data))                          { mTimeCodeQuarterFrameCallback = fptr; }
template<class SerialPort, class Settings> void MidiInterface<SerialPort, Settings>::setHandleSongPosition(void (*fptr)(unsigned beats))                             { mSongPositionCallback         = fptr; }
template<class SerialPort, class Settings> void MidiInterface<SerialPort, Settings>::setHandleSongSelect(void (*fptr)(byte songnumber))                              { mSongSelectCallback           = fptr; }
template<class SerialPort, class Settings> void MidiInterface<SerialPort, Settings>::setHandleTuneRequest(void (*fptr)(void))                                        { mTuneRequestCallback          = fptr; }
template<class SerialPort, class Settings> void MidiInterface<SerialPort, Settings>::setHandleClock(void (*fptr)(void))                                              { mClockCallback                = fptr; }
    3348:	4f18      	ldr	r7, [pc, #96]	; (33ac <_Z9midi_initv+0x70>)
    mSerial.begin(Settings::BaudRate);
    334a:	699b      	ldr	r3, [r3, #24]
    334c:	f647 2112 	movw	r1, #31250	; 0x7a12
    3350:	4798      	blx	r3
    mInputChannel = inChannel;
    3352:	2301      	movs	r3, #1
    mThruActivated  = true;
    3354:	fa03 fc03 	lsl.w	ip, r3, r3
    3358:	ea4c 0c03 	orr.w	ip, ip, r3
    mInputChannel = inChannel;
    335c:	f884 304c 	strb.w	r3, [r4, #76]	; 0x4c
    mRunningStatus_TX = InvalidType;
    3360:	2300      	movs	r3, #0
template<class SerialPort, class Settings> void MidiInterface<SerialPort, Settings>::setHandleNoteOn(void (*fptr)(byte channel, byte note, byte velocity))           { mNoteOnCallback               = fptr; }
    3362:	4913      	ldr	r1, [pc, #76]	; (33b0 <_Z9midi_initv+0x74>)
template<class SerialPort, class Settings> void MidiInterface<SerialPort, Settings>::setHandleNoteOff(void (*fptr)(byte channel, byte note, byte velocity))          { mNoteOffCallback              = fptr; }
    3364:	4a13      	ldr	r2, [pc, #76]	; (33b4 <_Z9midi_initv+0x78>)
    mThruActivated  = true;
    3366:	f884 c064 	strb.w	ip, [r4, #100]	; 0x64
    mCurrentRpnNumber  = 0xffff;
    336a:	f64f 70ff 	movw	r0, #65535	; 0xffff
    mRunningStatus_TX = InvalidType;
    336e:	f884 304e 	strb.w	r3, [r4, #78]	; 0x4e
    mRunningStatus_RX = InvalidType;
    3372:	f884 304d 	strb.w	r3, [r4, #77]	; 0x4d
    mMessage.channel = 0;
    3376:	f884 3065 	strb.w	r3, [r4, #101]	; 0x65
    mMessage.data1   = 0;
    337a:	f884 3067 	strb.w	r3, [r4, #103]	; 0x67
    mMessage.data2   = 0;
    337e:	f884 3068 	strb.w	r3, [r4, #104]	; 0x68
template<class SerialPort, class Settings> void MidiInterface<SerialPort, Settings>::setHandleClock(void (*fptr)(void))                                              { mClockCallback                = fptr; }
    3382:	6327      	str	r7, [r4, #48]	; 0x30
    mPendingMessageIndex = 0;
    3384:	65a3      	str	r3, [r4, #88]	; 0x58
    mPendingMessageExpectedLenght = 0;
    3386:	6563      	str	r3, [r4, #84]	; 0x54
    mMessage.valid   = false;
    3388:	f884 30e9 	strb.w	r3, [r4, #233]	; 0xe9
    mMessage.type    = InvalidType;
    338c:	f884 3066 	strb.w	r3, [r4, #102]	; 0x66
    mCurrentRpnNumber  = 0xffff;
    3390:	65e0      	str	r0, [r4, #92]	; 0x5c
    mCurrentNrpnNumber = 0xffff;
    3392:	6620      	str	r0, [r4, #96]	; 0x60
template<class SerialPort, class Settings> void MidiInterface<SerialPort, Settings>::setHandleNoteOn(void (*fptr)(byte channel, byte note, byte velocity))           { mNoteOnCallback               = fptr; }
    3394:	6061      	str	r1, [r4, #4]
template<class SerialPort, class Settings> void MidiInterface<SerialPort, Settings>::setHandleNoteOff(void (*fptr)(byte channel, byte note, byte velocity))          { mNoteOffCallback              = fptr; }
    3396:	6022      	str	r2, [r4, #0]
                usb_midi_handleNoteOn = fptr;
    3398:	6031      	str	r1, [r6, #0]
                usb_midi_handleNoteOff = fptr;
    339a:	602a      	str	r2, [r5, #0]
    339c:	bdf8      	pop	{r3, r4, r5, r6, r7, pc}
    339e:	bf00      	nop
    33a0:	2000209c 	.word	0x2000209c
    33a4:	200026c8 	.word	0x200026c8
    33a8:	20002698 	.word	0x20002698
    33ac:	000027a5 	.word	0x000027a5
    33b0:	00002831 	.word	0x00002831
    33b4:	00002841 	.word	0x00002841

000033b8 <_Z18button_matrix_initv>:
Keypad button_matrix = Keypad( makeKeymap(buttons), row_pins, col_pins, ROWS, COLS );

void button_matrix_init();
bool keys_scan_powerbutton();

void button_matrix_init() {
    33b8:	b510      	push	{r4, lr}
    button_matrix.setDebounceTime(15);
    33ba:	4c06      	ldr	r4, [pc, #24]	; (33d4 <_Z18button_matrix_initv+0x1c>)
    33bc:	210f      	movs	r1, #15
    33be:	4620      	mov	r0, r4
    33c0:	f008 f8c2 	bl	b548 <_ZN6Keypad15setDebounceTimeEj>
    button_matrix.setHoldTime(2000);
    33c4:	4620      	mov	r0, r4
    33c6:	f44f 61fa 	mov.w	r1, #2000	; 0x7d0
}
    33ca:	e8bd 4010 	ldmia.w	sp!, {r4, lr}
    button_matrix.setHoldTime(2000);
    33ce:	f008 b8c3 	b.w	b558 <_ZN6Keypad11setHoldTimeEj>
    33d2:	bf00      	nop
    33d4:	20002188 	.word	0x20002188

000033d8 <_Z21keys_scan_powerbuttonv>:

bool keys_scan_powerbutton() {
    33d8:	b538      	push	{r3, r4, r5, lr}
  bool r = false;

  pinMode(row_pins[powerbutton_row],INPUT_PULLUP);
    33da:	4d0b      	ldr	r5, [pc, #44]	; (3408 <_Z21keys_scan_powerbuttonv+0x30>)
  pinMode(col_pins[powerbutton_col],OUTPUT);
    33dc:	4c0b      	ldr	r4, [pc, #44]	; (340c <_Z21keys_scan_powerbuttonv+0x34>)
  pinMode(row_pins[powerbutton_row],INPUT_PULLUP);
    33de:	7868      	ldrb	r0, [r5, #1]
    33e0:	2102      	movs	r1, #2
    33e2:	f003 fddf 	bl	6fa4 <pinMode>
  pinMode(col_pins[powerbutton_col],OUTPUT);
    33e6:	7860      	ldrb	r0, [r4, #1]
    33e8:	2101      	movs	r1, #1
    33ea:	f003 fddb 	bl	6fa4 <pinMode>
  digitalWrite(col_pins[powerbutton_col],LOW);
    33ee:	7860      	ldrb	r0, [r4, #1]
    33f0:	2100      	movs	r1, #0
    33f2:	f003 fdc3 	bl	6f7c <digitalWrite>
  r = (digitalRead(row_pins[powerbutton_row]) == LOW);
    33f6:	7868      	ldrb	r0, [r5, #1]
    33f8:	f003 fdc6 	bl	6f88 <digitalRead>

  return r;
    33fc:	f1d0 0001 	rsbs	r0, r0, #1
    3400:	bf38      	it	cc
    3402:	2000      	movcc	r0, #0
    3404:	bd38      	pop	{r3, r4, r5, pc}
    3406:	bf00      	nop
    3408:	20000cac 	.word	0x20000cac
    340c:	20000ca0 	.word	0x20000ca0

00003410 <_ZN11AudioStreamC1EhPP18audio_block_struct>:
class AudioStream
{
public:
	AudioStream(unsigned char ninput, audio_block_t **iqueue) :
		num_inputs(ninput), inputQueue(iqueue) {
			active = false;
    3410:	2300      	movs	r3, #0
	AudioStream(unsigned char ninput, audio_block_t **iqueue) :
    3412:	b410      	push	{r4}
		num_inputs(ninput), inputQueue(iqueue) {
    3414:	4c10      	ldr	r4, [pc, #64]	; (3458 <_ZN11AudioStreamC1EhPP18audio_block_struct+0x48>)
    3416:	7241      	strb	r1, [r0, #9]
    3418:	6102      	str	r2, [r0, #16]
    341a:	6004      	str	r4, [r0, #0]
			active = false;
    341c:	7203      	strb	r3, [r0, #8]
			destination_list = NULL;
    341e:	60c3      	str	r3, [r0, #12]
			for (int i=0; i < num_inputs; i++) {
    3420:	b141      	cbz	r1, 3434 <_ZN11AudioStreamC1EhPP18audio_block_struct+0x24>
				inputQueue[i] = NULL;
    3422:	4619      	mov	r1, r3
    3424:	e000      	b.n	3428 <_ZN11AudioStreamC1EhPP18audio_block_struct+0x18>
    3426:	6902      	ldr	r2, [r0, #16]
    3428:	f842 1023 	str.w	r1, [r2, r3, lsl #2]
			for (int i=0; i < num_inputs; i++) {
    342c:	7a42      	ldrb	r2, [r0, #9]
    342e:	3301      	adds	r3, #1
    3430:	429a      	cmp	r2, r3
    3432:	dcf8      	bgt.n	3426 <_ZN11AudioStreamC1EhPP18audio_block_struct+0x16>
			}
			// add to a simple list, for update_all
			// TODO: replace with a proper data flow analysis in update_all
			if (first_update == NULL) {
    3434:	4b09      	ldr	r3, [pc, #36]	; (345c <_ZN11AudioStreamC1EhPP18audio_block_struct+0x4c>)
    3436:	681a      	ldr	r2, [r3, #0]
    3438:	b90a      	cbnz	r2, 343e <_ZN11AudioStreamC1EhPP18audio_block_struct+0x2e>
    343a:	e00b      	b.n	3454 <_ZN11AudioStreamC1EhPP18audio_block_struct+0x44>
				first_update = this;
			} else {
				AudioStream *p;
				for (p=first_update; p->next_update; p = p->next_update) ;
    343c:	461a      	mov	r2, r3
    343e:	6953      	ldr	r3, [r2, #20]
    3440:	2b00      	cmp	r3, #0
    3442:	d1fb      	bne.n	343c <_ZN11AudioStreamC1EhPP18audio_block_struct+0x2c>
				p->next_update = this;
    3444:	6150      	str	r0, [r2, #20]
			}
			next_update = NULL;
    3446:	2300      	movs	r3, #0
    3448:	6143      	str	r3, [r0, #20]
			cpu_cycles = 0;
    344a:	8083      	strh	r3, [r0, #4]
			cpu_cycles_max = 0;
    344c:	80c3      	strh	r3, [r0, #6]
		}
    344e:	f85d 4b04 	ldr.w	r4, [sp], #4
    3452:	4770      	bx	lr
				first_update = this;
    3454:	6018      	str	r0, [r3, #0]
    3456:	e7f6      	b.n	3446 <_ZN11AudioStreamC1EhPP18audio_block_struct+0x36>
    3458:	00011810 	.word	0x00011810
    345c:	200026e0 	.word	0x200026e0

00003460 <_ZN25AudioEffectCustomEnvelopeC1Ev>:
			active = false;
    3460:	2100      	movs	r1, #0
		num_inputs(ninput), inputQueue(iqueue) {
    3462:	4b19      	ldr	r3, [pc, #100]	; (34c8 <_ZN25AudioEffectCustomEnvelopeC1Ev+0x68>)
    3464:	6003      	str	r3, [r0, #0]
	AudioEffectCustomEnvelope() : AudioStream(1, inputQueueArray), env(ENVELOPE_MAX, 8) { }
    3466:	b410      	push	{r4}
    3468:	f100 0218 	add.w	r2, r0, #24
    346c:	2401      	movs	r4, #1
			for (int i=0; i < num_inputs; i++) {
    346e:	460b      	mov	r3, r1
		num_inputs(ninput), inputQueue(iqueue) {
    3470:	7244      	strb	r4, [r0, #9]
    3472:	6102      	str	r2, [r0, #16]
			active = false;
    3474:	7201      	strb	r1, [r0, #8]
			destination_list = NULL;
    3476:	60c1      	str	r1, [r0, #12]
    3478:	e000      	b.n	347c <_ZN25AudioEffectCustomEnvelopeC1Ev+0x1c>
    347a:	6902      	ldr	r2, [r0, #16]
				inputQueue[i] = NULL;
    347c:	f842 1023 	str.w	r1, [r2, r3, lsl #2]
			for (int i=0; i < num_inputs; i++) {
    3480:	7a42      	ldrb	r2, [r0, #9]
    3482:	3301      	adds	r3, #1
    3484:	4293      	cmp	r3, r2
    3486:	dbf8      	blt.n	347a <_ZN25AudioEffectCustomEnvelopeC1Ev+0x1a>
			if (first_update == NULL) {
    3488:	4b10      	ldr	r3, [pc, #64]	; (34cc <_ZN25AudioEffectCustomEnvelopeC1Ev+0x6c>)
    348a:	681a      	ldr	r2, [r3, #0]
    348c:	b90a      	cbnz	r2, 3492 <_ZN25AudioEffectCustomEnvelopeC1Ev+0x32>
    348e:	e018      	b.n	34c2 <_ZN25AudioEffectCustomEnvelopeC1Ev+0x62>
				for (p=first_update; p->next_update; p = p->next_update) ;
    3490:	461a      	mov	r2, r3
    3492:	6953      	ldr	r3, [r2, #20]
    3494:	2b00      	cmp	r3, #0
    3496:	d1fb      	bne.n	3490 <_ZN25AudioEffectCustomEnvelopeC1Ev+0x30>
				p->next_update = this;
    3498:	6150      	str	r0, [r2, #20]
			next_update = NULL;
    349a:	2300      	movs	r3, #0
    349c:	4c0c      	ldr	r4, [pc, #48]	; (34d0 <_ZN25AudioEffectCustomEnvelopeC1Ev+0x70>)
    349e:	6004      	str	r4, [r0, #0]
  Envelope(int maxValue, int pieceSize) : maxValue(maxValue), pieceSize(pieceSize), conf(maxValue, 0,0,0,0){ }
    34a0:	f44f 3180 	mov.w	r1, #65536	; 0x10000
    34a4:	2208      	movs	r2, #8
    34a6:	6143      	str	r3, [r0, #20]
			cpu_cycles = 0;
    34a8:	8083      	strh	r3, [r0, #4]
			cpu_cycles_max = 0;
    34aa:	80c3      	strh	r3, [r0, #6]
    34ac:	7703      	strb	r3, [r0, #28]
    34ae:	6283      	str	r3, [r0, #40]	; 0x28
         ,sustainLevel(sustain>maxVal?maxVal:sustain)
    34b0:	62c3      	str	r3, [r0, #44]	; 0x2c
    34b2:	6303      	str	r3, [r0, #48]	; 0x30
    34b4:	6343      	str	r3, [r0, #52]	; 0x34
    34b6:	6383      	str	r3, [r0, #56]	; 0x38
  Envelope(int maxValue, int pieceSize) : maxValue(maxValue), pieceSize(pieceSize), conf(maxValue, 0,0,0,0){ }
    34b8:	6201      	str	r1, [r0, #32]
    34ba:	6242      	str	r2, [r0, #36]	; 0x24
    34bc:	f85d 4b04 	ldr.w	r4, [sp], #4
    34c0:	4770      	bx	lr
				first_update = this;
    34c2:	6018      	str	r0, [r3, #0]
    34c4:	e7e9      	b.n	349a <_ZN25AudioEffectCustomEnvelopeC1Ev+0x3a>
    34c6:	bf00      	nop
    34c8:	00011810 	.word	0x00011810
    34cc:	200026e0 	.word	0x200026e0
    34d0:	00011820 	.word	0x00011820

000034d4 <_ZN24AudioFilterStateVariableC1Ev>:
			active = false;
    34d4:	2100      	movs	r1, #0
		num_inputs(ninput), inputQueue(iqueue) {
    34d6:	4b19      	ldr	r3, [pc, #100]	; (353c <_ZN24AudioFilterStateVariableC1Ev+0x68>)
    34d8:	6003      	str	r3, [r0, #0]
#include "AudioStream.h"

class AudioFilterStateVariable: public AudioStream
{
public:
	AudioFilterStateVariable() : AudioStream(2, inputQueueArray) {
    34da:	b470      	push	{r4, r5, r6}
    34dc:	f100 0234 	add.w	r2, r0, #52	; 0x34
    34e0:	2402      	movs	r4, #2
			for (int i=0; i < num_inputs; i++) {
    34e2:	460b      	mov	r3, r1
		num_inputs(ninput), inputQueue(iqueue) {
    34e4:	7244      	strb	r4, [r0, #9]
    34e6:	6102      	str	r2, [r0, #16]
			active = false;
    34e8:	7201      	strb	r1, [r0, #8]
			destination_list = NULL;
    34ea:	60c1      	str	r1, [r0, #12]
    34ec:	e000      	b.n	34f0 <_ZN24AudioFilterStateVariableC1Ev+0x1c>
    34ee:	6902      	ldr	r2, [r0, #16]
				inputQueue[i] = NULL;
    34f0:	f842 1023 	str.w	r1, [r2, r3, lsl #2]
			for (int i=0; i < num_inputs; i++) {
    34f4:	7a42      	ldrb	r2, [r0, #9]
    34f6:	3301      	adds	r3, #1
    34f8:	4293      	cmp	r3, r2
    34fa:	dbf8      	blt.n	34ee <_ZN24AudioFilterStateVariableC1Ev+0x1a>
			if (first_update == NULL) {
    34fc:	4b10      	ldr	r3, [pc, #64]	; (3540 <_ZN24AudioFilterStateVariableC1Ev+0x6c>)
    34fe:	681a      	ldr	r2, [r3, #0]
    3500:	b90a      	cbnz	r2, 3506 <_ZN24AudioFilterStateVariableC1Ev+0x32>
    3502:	e018      	b.n	3536 <_ZN24AudioFilterStateVariableC1Ev+0x62>
				for (p=first_update; p->next_update; p = p->next_update) ;
    3504:	461a      	mov	r2, r3
    3506:	6953      	ldr	r3, [r2, #20]
    3508:	2b00      	cmp	r3, #0
    350a:	d1fb      	bne.n	3504 <_ZN24AudioFilterStateVariableC1Ev+0x30>
				p->next_update = this;
    350c:	6150      	str	r0, [r2, #20]
			next_update = NULL;
    350e:	2300      	movs	r3, #0
    3510:	4e0c      	ldr	r6, [pc, #48]	; (3544 <_ZN24AudioFilterStateVariableC1Ev+0x70>)
	}
	void frequency(float freq) {
		if (freq < 20.0) freq = 20.0;
		else if (freq > AUDIO_SAMPLE_RATE_EXACT/2.5) freq = AUDIO_SAMPLE_RATE_EXACT/2.5;
		setting_fcenter = (freq * (3.141592654/(AUDIO_SAMPLE_RATE_EXACT*2.0)))
			* 2147483647.0;
    3512:	4d0d      	ldr	r5, [pc, #52]	; (3548 <_ZN24AudioFilterStateVariableC1Ev+0x74>)
		// TODO: should we use an approximation when freq is not a const,
		// so the sinf() function isn't linked?
		setting_fmult = sinf(freq * (3.141592654/(AUDIO_SAMPLE_RATE_EXACT*2.0)))
			* 2147483647.0;
    3514:	4c0d      	ldr	r4, [pc, #52]	; (354c <_ZN24AudioFilterStateVariableC1Ev+0x78>)
	}
	void resonance(float q) {
		if (q < 0.7) q = 0.7;
		else if (q > 5.0) q = 5.0;
		// TODO: allow lower Q when frequency is lower
		setting_damp = (1.0 / q) * 1073741824.0;
    3516:	4a0e      	ldr	r2, [pc, #56]	; (3550 <_ZN24AudioFilterStateVariableC1Ev+0x7c>)
	AudioFilterStateVariable() : AudioStream(2, inputQueueArray) {
    3518:	6006      	str	r6, [r0, #0]
		// filter's corner frequency is Fcenter * 2^(control * N)
		// where "control" ranges from -1.0 to +1.0
		// and "N" allows the frequency to change from 0 to 7 octaves
		if (n < 0.0) n = 0.0;
		else if (n > 6.9999) n = 6.9999;
		setting_octavemult = n * 4096.0;
    351a:	f44f 5180 	mov.w	r1, #4096	; 0x1000
			* 2147483647.0;
    351e:	6185      	str	r5, [r0, #24]
			* 2147483647.0;
    3520:	61c4      	str	r4, [r0, #28]
    3522:	6143      	str	r3, [r0, #20]
			cpu_cycles = 0;
    3524:	8083      	strh	r3, [r0, #4]
			cpu_cycles_max = 0;
    3526:	80c3      	strh	r3, [r0, #6]
		state_inputprev = 0;
    3528:	6283      	str	r3, [r0, #40]	; 0x28
		state_lowpass = 0;
    352a:	62c3      	str	r3, [r0, #44]	; 0x2c
		state_bandpass = 0;
    352c:	6303      	str	r3, [r0, #48]	; 0x30
		setting_octavemult = n * 4096.0;
    352e:	6201      	str	r1, [r0, #32]
		setting_damp = (1.0 / q) * 1073741824.0;
    3530:	6242      	str	r2, [r0, #36]	; 0x24
	}
    3532:	bc70      	pop	{r4, r5, r6}
    3534:	4770      	bx	lr
				first_update = this;
    3536:	6018      	str	r0, [r3, #0]
    3538:	e7e9      	b.n	350e <_ZN24AudioFilterStateVariableC1Ev+0x3a>
    353a:	bf00      	nop
    353c:	00011810 	.word	0x00011810
    3540:	200026e0 	.word	0x200026e0
    3544:	00012050 	.word	0x00012050
    3548:	048eb202 	.word	0x048eb202
    354c:	048e72e7 	.word	0x048e72e7
    3550:	5a85f956 	.word	0x5a85f956

00003554 <_ZN11AudioMixer4C1Ev>:
			active = false;
    3554:	2100      	movs	r1, #0
		num_inputs(ninput), inputQueue(iqueue) {
    3556:	4b16      	ldr	r3, [pc, #88]	; (35b0 <_ZN11AudioMixer4C1Ev+0x5c>)
    3558:	6003      	str	r3, [r0, #0]

class AudioMixer4 : public AudioStream
{
#if defined(KINETISK)
public:
        AudioMixer4(void) : AudioStream(4, inputQueueArray) {
    355a:	b410      	push	{r4}
    355c:	f100 0228 	add.w	r2, r0, #40	; 0x28
    3560:	2404      	movs	r4, #4
			for (int i=0; i < num_inputs; i++) {
    3562:	460b      	mov	r3, r1
		num_inputs(ninput), inputQueue(iqueue) {
    3564:	7244      	strb	r4, [r0, #9]
    3566:	6102      	str	r2, [r0, #16]
			active = false;
    3568:	7201      	strb	r1, [r0, #8]
			destination_list = NULL;
    356a:	60c1      	str	r1, [r0, #12]
    356c:	e000      	b.n	3570 <_ZN11AudioMixer4C1Ev+0x1c>
    356e:	6902      	ldr	r2, [r0, #16]
				inputQueue[i] = NULL;
    3570:	f842 1023 	str.w	r1, [r2, r3, lsl #2]
			for (int i=0; i < num_inputs; i++) {
    3574:	7a42      	ldrb	r2, [r0, #9]
    3576:	3301      	adds	r3, #1
    3578:	4293      	cmp	r3, r2
    357a:	dbf8      	blt.n	356e <_ZN11AudioMixer4C1Ev+0x1a>
			if (first_update == NULL) {
    357c:	4b0d      	ldr	r3, [pc, #52]	; (35b4 <_ZN11AudioMixer4C1Ev+0x60>)
    357e:	681a      	ldr	r2, [r3, #0]
    3580:	b90a      	cbnz	r2, 3586 <_ZN11AudioMixer4C1Ev+0x32>
    3582:	e013      	b.n	35ac <_ZN11AudioMixer4C1Ev+0x58>
				for (p=first_update; p->next_update; p = p->next_update) ;
    3584:	461a      	mov	r2, r3
    3586:	6953      	ldr	r3, [r2, #20]
    3588:	2b00      	cmp	r3, #0
    358a:	d1fb      	bne.n	3584 <_ZN11AudioMixer4C1Ev+0x30>
				p->next_update = this;
    358c:	6150      	str	r0, [r2, #20]
		for (int i=0; i<4; i++) multiplier[i] = 65536;
    358e:	f44f 3380 	mov.w	r3, #65536	; 0x10000
			next_update = NULL;
    3592:	2200      	movs	r2, #0
        AudioMixer4(void) : AudioStream(4, inputQueueArray) {
    3594:	4908      	ldr	r1, [pc, #32]	; (35b8 <_ZN11AudioMixer4C1Ev+0x64>)
    3596:	6142      	str	r2, [r0, #20]
			cpu_cycles = 0;
    3598:	8082      	strh	r2, [r0, #4]
			cpu_cycles_max = 0;
    359a:	80c2      	strh	r2, [r0, #6]
    359c:	6001      	str	r1, [r0, #0]
		for (int i=0; i<4; i++) multiplier[i] = 65536;
    359e:	6183      	str	r3, [r0, #24]
    35a0:	61c3      	str	r3, [r0, #28]
    35a2:	6203      	str	r3, [r0, #32]
    35a4:	6243      	str	r3, [r0, #36]	; 0x24
	}
    35a6:	f85d 4b04 	ldr.w	r4, [sp], #4
    35aa:	4770      	bx	lr
				first_update = this;
    35ac:	6018      	str	r0, [r3, #0]
    35ae:	e7ee      	b.n	358e <_ZN11AudioMixer4C1Ev+0x3a>
    35b0:	00011810 	.word	0x00011810
    35b4:	200026e0 	.word	0x200026e0
    35b8:	00012060 	.word	0x00012060

000035bc <_ZN18AudioSynthWaveformC1Ev>:
			if (first_update == NULL) {
    35bc:	4911      	ldr	r1, [pc, #68]	; (3604 <_ZN18AudioSynthWaveformC1Ev+0x48>)
    35be:	680a      	ldr	r2, [r1, #0]
		num_inputs(ninput), inputQueue(iqueue) {
    35c0:	2300      	movs	r3, #0

class AudioSynthWaveform : 
public AudioStream
{
public:
  AudioSynthWaveform(void) : 
    35c2:	b410      	push	{r4}
    35c4:	4c10      	ldr	r4, [pc, #64]	; (3608 <_ZN18AudioSynthWaveformC1Ev+0x4c>)
    35c6:	6004      	str	r4, [r0, #0]
    35c8:	7243      	strb	r3, [r0, #9]
    35ca:	6103      	str	r3, [r0, #16]
			active = false;
    35cc:	7203      	strb	r3, [r0, #8]
			destination_list = NULL;
    35ce:	60c3      	str	r3, [r0, #12]
			if (first_update == NULL) {
    35d0:	b90a      	cbnz	r2, 35d6 <_ZN18AudioSynthWaveformC1Ev+0x1a>
    35d2:	e015      	b.n	3600 <_ZN18AudioSynthWaveformC1Ev+0x44>
				for (p=first_update; p->next_update; p = p->next_update) ;
    35d4:	461a      	mov	r2, r3
    35d6:	6953      	ldr	r3, [r2, #20]
    35d8:	2b00      	cmp	r3, #0
    35da:	d1fb      	bne.n	35d4 <_ZN18AudioSynthWaveformC1Ev+0x18>
				p->next_update = this;
    35dc:	6150      	str	r0, [r2, #20]
			next_update = NULL;
    35de:	2300      	movs	r3, #0
  AudioStream(0,NULL), tone_amp(0), tone_freq(0),
  tone_phase(0), tone_width(0.25), tone_incr(0), tone_type(0),
  tone_offset(0), arbdata(NULL)
    35e0:	4a0a      	ldr	r2, [pc, #40]	; (360c <_ZN18AudioSynthWaveformC1Ev+0x50>)
    35e2:	6143      	str	r3, [r0, #20]
			cpu_cycles = 0;
    35e4:	8083      	strh	r3, [r0, #4]
			cpu_cycles_max = 0;
    35e6:	80c3      	strh	r3, [r0, #6]
    35e8:	8303      	strh	r3, [r0, #24]
    35ea:	8343      	strh	r3, [r0, #26]
    35ec:	61c3      	str	r3, [r0, #28]
    35ee:	6203      	str	r3, [r0, #32]
    35f0:	6283      	str	r3, [r0, #40]	; 0x28
    35f2:	8583      	strh	r3, [r0, #44]	; 0x2c
    35f4:	85c3      	strh	r3, [r0, #46]	; 0x2e
    35f6:	6303      	str	r3, [r0, #48]	; 0x30
    35f8:	6002      	str	r2, [r0, #0]
  { 
  }
    35fa:	f85d 4b04 	ldr.w	r4, [sp], #4
    35fe:	4770      	bx	lr
				first_update = this;
    3600:	6008      	str	r0, [r1, #0]
    3602:	e7ec      	b.n	35de <_ZN18AudioSynthWaveformC1Ev+0x22>
    3604:	200026e0 	.word	0x200026e0
    3608:	00011810 	.word	0x00011810
    360c:	000120a0 	.word	0x000120a0

00003610 <_ZN20AudioSynthSimpleDrumC1Ev>:

class AudioSynthSimpleDrum : public AudioStream
{
public:

  AudioSynthSimpleDrum() : AudioStream(1, inputQueueArray) 
    3610:	b538      	push	{r3, r4, r5, lr}
    3612:	4604      	mov	r4, r0
		num_inputs(ninput), inputQueue(iqueue) {
    3614:	4b19      	ldr	r3, [pc, #100]	; (367c <_ZN20AudioSynthSimpleDrumC1Ev+0x6c>)
    3616:	6003      	str	r3, [r0, #0]
			active = false;
    3618:	2100      	movs	r1, #0
		num_inputs(ninput), inputQueue(iqueue) {
    361a:	2001      	movs	r0, #1
    361c:	f104 0218 	add.w	r2, r4, #24
			for (int i=0; i < num_inputs; i++) {
    3620:	460b      	mov	r3, r1
		num_inputs(ninput), inputQueue(iqueue) {
    3622:	7260      	strb	r0, [r4, #9]
    3624:	6122      	str	r2, [r4, #16]
			active = false;
    3626:	7221      	strb	r1, [r4, #8]
			destination_list = NULL;
    3628:	60e1      	str	r1, [r4, #12]
    362a:	e000      	b.n	362e <_ZN20AudioSynthSimpleDrumC1Ev+0x1e>
    362c:	6922      	ldr	r2, [r4, #16]
				inputQueue[i] = NULL;
    362e:	f842 1023 	str.w	r1, [r2, r3, lsl #2]
			for (int i=0; i < num_inputs; i++) {
    3632:	7a62      	ldrb	r2, [r4, #9]
    3634:	3301      	adds	r3, #1
    3636:	4293      	cmp	r3, r2
    3638:	dbf8      	blt.n	362c <_ZN20AudioSynthSimpleDrumC1Ev+0x1c>
			if (first_update == NULL) {
    363a:	4b11      	ldr	r3, [pc, #68]	; (3680 <_ZN20AudioSynthSimpleDrumC1Ev+0x70>)
    363c:	681a      	ldr	r2, [r3, #0]
    363e:	b90a      	cbnz	r2, 3644 <_ZN20AudioSynthSimpleDrumC1Ev+0x34>
    3640:	e019      	b.n	3676 <_ZN20AudioSynthSimpleDrumC1Ev+0x66>
				for (p=first_update; p->next_update; p = p->next_update) ;
    3642:	461a      	mov	r2, r3
    3644:	6953      	ldr	r3, [r2, #20]
    3646:	2b00      	cmp	r3, #0
    3648:	d1fb      	bne.n	3642 <_ZN20AudioSynthSimpleDrumC1Ev+0x32>
				p->next_update = this;
    364a:	6154      	str	r4, [r2, #20]
			next_update = NULL;
    364c:	2500      	movs	r5, #0
    if(milliseconds > 5000)
      milliseconds = 5000;

    int32_t len_samples = milliseconds*(AUDIO_SAMPLE_RATE_EXACT/1000.0);

    env_decrement = (0x7fff0000/len_samples);
    364e:	4a0d      	ldr	r2, [pc, #52]	; (3684 <_ZN20AudioSynthSimpleDrumC1Ev+0x74>)
    wav_increment = (freq * (0x7fffffffLL/AUDIO_SAMPLE_RATE_EXACT)) + 0.5;
    3650:	4b0d      	ldr	r3, [pc, #52]	; (3688 <_ZN20AudioSynthSimpleDrumC1Ev+0x78>)
  AudioSynthSimpleDrum() : AudioStream(1, inputQueueArray) 
    3652:	490e      	ldr	r1, [pc, #56]	; (368c <_ZN20AudioSynthSimpleDrumC1Ev+0x7c>)
    3654:	6021      	str	r1, [r4, #0]
    wav_increment = (freq * (0x7fffffffLL/AUDIO_SAMPLE_RATE_EXACT)) + 0.5;
    3656:	6323      	str	r3, [r4, #48]	; 0x30
    pitchMod(0x200);
    3658:	4620      	mov	r0, r4
    365a:	6165      	str	r5, [r4, #20]
			cpu_cycles = 0;
    365c:	80a5      	strh	r5, [r4, #4]
			cpu_cycles_max = 0;
    365e:	80e5      	strh	r5, [r4, #6]
    env_decrement = (0x7fff0000/len_samples);
    3660:	6222      	str	r2, [r4, #32]
    pitchMod(0x200);
    3662:	f04f 4188 	mov.w	r1, #1140850688	; 0x44000000
    3666:	f007 fbad 	bl	adc4 <_ZN20AudioSynthSimpleDrum8pitchModEf>
    wav_amplitude1 = 0x7fff;
    366a:	f647 73ff 	movw	r3, #32767	; 0x7fff
    wav_amplitude2 = 0;
    366e:	85e5      	strh	r5, [r4, #46]	; 0x2e
    wav_amplitude1 = 0x7fff;
    3670:	85a3      	strh	r3, [r4, #44]	; 0x2c
  }
    3672:	4620      	mov	r0, r4
    3674:	bd38      	pop	{r3, r4, r5, pc}
				first_update = this;
    3676:	601c      	str	r4, [r3, #0]
    3678:	e7e8      	b.n	364c <_ZN20AudioSynthSimpleDrumC1Ev+0x3c>
    367a:	bf00      	nop
    367c:	00011810 	.word	0x00011810
    3680:	200026e0 	.word	0x200026e0
    3684:	00013ce6 	.word	0x00013ce6
    3688:	002c9082 	.word	0x002c9082
    368c:	00012090 	.word	0x00012090

00003690 <_Z10audio_initv>:
#define HAT_GAIN 0.9

void audio_init();
void audio_volume(uint8_t volume);

void audio_init() {
    3690:	e92d 4ff8 	stmdb	sp!, {r3, r4, r5, r6, r7, r8, r9, sl, fp, lr}
  AudioMemory(128); // 260 bytes per block, 2.9ms per block
    3694:	485a      	ldr	r0, [pc, #360]	; (3800 <_Z10audio_initv+0x170>)
      // reset the phase when the amplitude was zero
      // and has now been increased.
      tone_phase = 0;
    }
    // set new magnitude
    tone_amp = n * 32767.0;
    3696:	4d5b      	ldr	r5, [pc, #364]	; (3804 <_Z10audio_initv+0x174>)
        virtual void update(void);
	void gain(unsigned int channel, float gain) {
		if (channel >= 4) return;
		if (gain > 32767.0f) gain = 32767.0f;
		else if (gain < -32767.0f) gain = -32767.0f;
		multiplier[channel] = gain * 65536.0f; // TODO: proper roundoff?
    3698:	4f5b      	ldr	r7, [pc, #364]	; (3808 <_Z10audio_initv+0x178>)
    tone_incr = (t_freq * (0x80000000LL/AUDIO_SAMPLE_RATE_EXACT)) + 0.5;
    369a:	4c5c      	ldr	r4, [pc, #368]	; (380c <_Z10audio_initv+0x17c>)
		setting_damp = (1.0 / q) * 1073741824.0;
    369c:	f8df a1a0 	ldr.w	sl, [pc, #416]	; 3840 <_Z10audio_initv+0x1b0>
			* 2147483647.0;
    36a0:	f8df 91a0 	ldr.w	r9, [pc, #416]	; 3844 <_Z10audio_initv+0x1b4>
			* 2147483647.0;
    36a4:	f8df 81a0 	ldr.w	r8, [pc, #416]	; 3848 <_Z10audio_initv+0x1b8>
    36a8:	2180      	movs	r1, #128	; 0x80
    36aa:	f006 f871 	bl	9790 <_ZN11AudioStream17initialize_memoryEP18audio_block_structj>
    tone_offset = n * 32767.0;
  }
  void pulseWidth(float n) {          // 0.0 to 1.0
    if (n < 0) n = 0;
    else if (n > 1.0) n = 1.0;
    tone_width = n * 0x7fffffffLL; 
    36ae:	4b58      	ldr	r3, [pc, #352]	; (3810 <_Z10audio_initv+0x180>)
		setting_damp = (1.0 / q) * 1073741824.0;
    36b0:	4a58      	ldr	r2, [pc, #352]	; (3814 <_Z10audio_initv+0x184>)
    tone_incr = (t_freq * (0x80000000LL/AUDIO_SAMPLE_RATE_EXACT)) + 0.5;
    36b2:	4959      	ldr	r1, [pc, #356]	; (3818 <_Z10audio_initv+0x188>)
    36b4:	f8c2 a024 	str.w	sl, [r2, #36]	; 0x24
    tone_width = n * 0x7fffffffLL; 
    36b8:	f04f 4c80 	mov.w	ip, #1073741824	; 0x40000000
    36bc:	f8c3 c020 	str.w	ip, [r3, #32]
    tone_amp = n * 32767.0;
    36c0:	f243 3e32 	movw	lr, #13106	; 0x3332
		setting_octavemult = n * 4096.0;
    36c4:	f44f 4c80 	mov.w	ip, #16384	; 0x4000
    36c8:	f8a3 e018 	strh.w	lr, [r3, #24]
			* 2147483647.0;
    36cc:	f8c2 9018 	str.w	r9, [r2, #24]
			* 2147483647.0;
    36d0:	f8c2 801c 	str.w	r8, [r2, #28]
		setting_octavemult = n * 4096.0;
    36d4:	f8c2 c020 	str.w	ip, [r2, #32]
    tone_incr = (t_freq * (0x80000000LL/AUDIO_SAMPLE_RATE_EXACT)) + 0.5;
    36d8:	62ac      	str	r4, [r5, #40]	; 0x28
    tone_amp = n * 32767.0;
    36da:	f8a5 e018 	strh.w	lr, [r5, #24]
    tone_incr = (t_freq * (0x80000000LL/AUDIO_SAMPLE_RATE_EXACT)) + 0.5;
    36de:	6299      	str	r1, [r3, #40]	; 0x28
    36e0:	f247 3e33 	movw	lr, #29491	; 0x7333
    // pulse width is stored as the equivalent phase
  }
  void begin(short t_type) {
	tone_phase = 0;
    36e4:	2400      	movs	r4, #0
  filter1.resonance(0.7); // range 0.7-5.0
  filter1.frequency(400);
  filter1.octaveControl(4);

  // Amp envelope
  envelope1.attack(2);
    36e6:	484d      	ldr	r0, [pc, #308]	; (381c <_Z10audio_initv+0x18c>)
    36e8:	61dc      	str	r4, [r3, #28]
	tone_type = t_type;
    36ea:	f04f 0b05 	mov.w	fp, #5
    36ee:	2601      	movs	r6, #1
    36f0:	2102      	movs	r1, #2
    36f2:	f8a3 b02c 	strh.w	fp, [r3, #44]	; 0x2c
    36f6:	f8c7 e018 	str.w	lr, [r7, #24]
    36fa:	f8c7 e01c 	str.w	lr, [r7, #28]
	tone_phase = 0;
    36fe:	61ec      	str	r4, [r5, #28]
	tone_type = t_type;
    3700:	85ae      	strh	r6, [r5, #44]	; 0x2c
    3702:	f7fe ff39 	bl	2578 <_ZN25AudioEffectCustomEnvelope6attackEi>
  envelope1.decay(0);
    3706:	4621      	mov	r1, r4
    3708:	4844      	ldr	r0, [pc, #272]	; (381c <_Z10audio_initv+0x18c>)
    370a:	f7fe ff39 	bl	2580 <_ZN25AudioEffectCustomEnvelope5decayEi>
  envelope1.sustain(1.0);
    370e:	4843      	ldr	r0, [pc, #268]	; (381c <_Z10audio_initv+0x18c>)
    3710:	f04f 517e 	mov.w	r1, #1065353216	; 0x3f800000
    3714:	f7fe ff38 	bl	2588 <_ZN25AudioEffectCustomEnvelope7sustainEf>
  envelope1.release(400);
    3718:	4840      	ldr	r0, [pc, #256]	; (381c <_Z10audio_initv+0x18c>)
    371a:	f44f 71c8 	mov.w	r1, #400	; 0x190
    371e:	f7fe ff43 	bl	25a8 <_ZN25AudioEffectCustomEnvelope7releaseEi>
	// immediately jump to the new DC level
	void amplitude(float n) {
		if (n > 1.0) n = 1.0;
		else if (n < -1.0) n = -1.0;
		int32_t m = (int32_t)(n * 2147418112.0);
		__disable_irq();
    3722:	b672      	cpsid	i
		magnitude = m;
    3724:	4b3e      	ldr	r3, [pc, #248]	; (3820 <_Z10audio_initv+0x190>)
    3726:	4a3f      	ldr	r2, [pc, #252]	; (3824 <_Z10audio_initv+0x194>)
		state = 0;
    3728:	761c      	strb	r4, [r3, #24]
		magnitude = m;
    372a:	61da      	str	r2, [r3, #28]
		__enable_irq();
    372c:	b662      	cpsie	i

  // Filter envelope
  dc1.amplitude(1.0); // Filter env needs an input signal
  envelope2.attack(15);
    372e:	483e      	ldr	r0, [pc, #248]	; (3828 <_Z10audio_initv+0x198>)
    3730:	210f      	movs	r1, #15
    3732:	f7fe ff21 	bl	2578 <_ZN25AudioEffectCustomEnvelope6attackEi>
  envelope2.decay(0);
    3736:	4621      	mov	r1, r4
    3738:	483b      	ldr	r0, [pc, #236]	; (3828 <_Z10audio_initv+0x198>)
    373a:	f7fe ff21 	bl	2580 <_ZN25AudioEffectCustomEnvelope5decayEi>
  envelope2.sustain(1.0);
    373e:	483a      	ldr	r0, [pc, #232]	; (3828 <_Z10audio_initv+0x198>)
    3740:	f04f 517e 	mov.w	r1, #1065353216	; 0x3f800000
    3744:	f7fe ff20 	bl	2588 <_ZN25AudioEffectCustomEnvelope7sustainEf>
  envelope2.release(300);
    3748:	4837      	ldr	r0, [pc, #220]	; (3828 <_Z10audio_initv+0x198>)
    374a:	f44f 7196 	mov.w	r1, #300	; 0x12c
    374e:	f7fe ff2b 	bl	25a8 <_ZN25AudioEffectCustomEnvelope7releaseEi>
		if (milliseconds < 0.0) milliseconds = 0.0;
		uint32_t n = (milliseconds*(AUDIO_SAMPLE_RATE_EXACT/1000.0))+0.5;
		uint32_t nmax = AUDIO_BLOCK_SAMPLES * (DELAY_QUEUE_SIZE-1);
		if (n > nmax) n = nmax;
		uint32_t blks = (n + (AUDIO_BLOCK_SAMPLES-1)) / AUDIO_BLOCK_SAMPLES + 1;
		if (!(activemask & (1<<channel))) {
    3752:	4b36      	ldr	r3, [pc, #216]	; (382c <_Z10audio_initv+0x19c>)
	AudioEffectBitcrusher(void)
	  : AudioStream(1, inputQueueArray) {}
	void bits(uint8_t b) {
		if (b > 16) b = 16;
		else if (b == 0) b = 1;
		crushBits = b;
    3754:	4936      	ldr	r1, [pc, #216]	; (3830 <_Z10audio_initv+0x1a0>)
    3756:	7e1a      	ldrb	r2, [r3, #24]
	}
        void sampleRate(float hz) {
		int n = (AUDIO_SAMPLE_RATE_EXACT / hz) + 0.5;
		if (n < 1) n = 1;
		else if (n > 64) n = 64;
		sampleStep = n;
    3758:	764e      	strb	r6, [r1, #25]
		crushBits = b;
    375a:	2010      	movs	r0, #16
    375c:	7608      	strb	r0, [r1, #24]
    375e:	07d1      	lsls	r1, r2, #31
    3760:	d427      	bmi.n	37b2 <_Z10audio_initv+0x122>
			// enabling a previously disabled channel
			position[channel] = n;
			if (blks > maxblocks) maxblocks = blks;
    3762:	7ed9      	ldrb	r1, [r3, #27]
    3764:	2974      	cmp	r1, #116	; 0x74
			position[channel] = n;
    3766:	f44f 5068 	mov.w	r0, #14848	; 0x3a00
			if (blks > maxblocks) maxblocks = blks;
    376a:	bf98      	it	ls
    376c:	2175      	movls	r1, #117	; 0x75
			activemask |= (1<<channel);
    376e:	f042 0201 	orr.w	r2, r2, #1
			position[channel] = n;
    3772:	8398      	strh	r0, [r3, #28]
			if (blks > maxblocks) maxblocks = blks;
    3774:	bf98      	it	ls
    3776:	76d9      	strbls	r1, [r3, #27]
			activemask |= (1<<channel);
    3778:	761a      	strb	r2, [r3, #24]
    377a:	4b2e      	ldr	r3, [pc, #184]	; (3834 <_Z10audio_initv+0x1a4>)
    377c:	4a2e      	ldr	r2, [pc, #184]	; (3838 <_Z10audio_initv+0x1a8>)
    EXTERNAL = 3.3V supply voltage
    */
  #ifdef SUPER_LOUD_MODE
    dac1.analogReference(EXTERNAL);
  #else
    dac1.analogReference(INTERNAL);
    377e:	482f      	ldr	r0, [pc, #188]	; (383c <_Z10audio_initv+0x1ac>)
    3780:	f04f 0800 	mov.w	r8, #0
    3784:	f64c 47cc 	movw	r7, #52428	; 0xcccc
    3788:	f649 1699 	movw	r6, #39321	; 0x9999
    378c:	f44f 3580 	mov.w	r5, #65536	; 0x10000
    3790:	f24e 6466 	movw	r4, #58982	; 0xe666
    3794:	f246 6c66 	movw	ip, #26214	; 0x6666
    3798:	f8c2 8018 	str.w	r8, [r2, #24]
    379c:	619f      	str	r7, [r3, #24]
    379e:	61de      	str	r6, [r3, #28]
    37a0:	621d      	str	r5, [r3, #32]
    37a2:	625c      	str	r4, [r3, #36]	; 0x24
    37a4:	2102      	movs	r1, #2
  #endif
}
    37a6:	e8bd 4ff8 	ldmia.w	sp!, {r3, r4, r5, r6, r7, r8, r9, sl, fp, lr}
    37aa:	f8c2 c01c 	str.w	ip, [r2, #28]
    dac1.analogReference(INTERNAL);
    37ae:	f007 b981 	b.w	aab4 <_ZN17AudioOutputAnalog15analogReferenceEi>
		} else {
			if (n > position[channel]) {
    37b2:	8b99      	ldrh	r1, [r3, #28]
    37b4:	f5b1 5f68 	cmp.w	r1, #14848	; 0x3a00
    37b8:	d208      	bcs.n	37cc <_Z10audio_initv+0x13c>
				// new delay is greater than previous setting
				if (blks > maxblocks) maxblocks = blks;
    37ba:	7eda      	ldrb	r2, [r3, #27]
    37bc:	2a74      	cmp	r2, #116	; 0x74
    37be:	bf9c      	itt	ls
    37c0:	2275      	movls	r2, #117	; 0x75
    37c2:	76da      	strbls	r2, [r3, #27]
				position[channel] = n;
    37c4:	f44f 5268 	mov.w	r2, #14848	; 0x3a00
    37c8:	839a      	strh	r2, [r3, #28]
    37ca:	e7d6      	b.n	377a <_Z10audio_initv+0xea>
			} else {
				// new delay is less than previous setting
				position[channel] = n;
    37cc:	f44f 5168 	mov.w	r1, #14848	; 0x3a00
    37d0:	8399      	strh	r1, [r3, #28]
		recompute_maxblocks();
	}
	virtual void update(void);
private:
	void recompute_maxblocks(void) {
		uint32_t max=0;
    37d2:	4625      	mov	r5, r4
    37d4:	4619      	mov	r1, r3
		uint32_t channel = 0;
		do {
			if (activemask & (1<<channel)) {
    37d6:	fa42 f004 	asr.w	r0, r2, r4
    37da:	f010 0f01 	tst.w	r0, #1
    37de:	f104 0401 	add.w	r4, r4, #1
    37e2:	d006      	beq.n	37f2 <_Z10audio_initv+0x162>
				uint32_t n = position[channel];
    37e4:	8b88      	ldrh	r0, [r1, #28]
				n = (n + (AUDIO_BLOCK_SAMPLES-1)) / AUDIO_BLOCK_SAMPLES + 1;
    37e6:	307f      	adds	r0, #127	; 0x7f
    37e8:	09c0      	lsrs	r0, r0, #7
    37ea:	3001      	adds	r0, #1
    37ec:	4285      	cmp	r5, r0
    37ee:	bf38      	it	cc
    37f0:	4605      	movcc	r5, r0
		do {
    37f2:	2c08      	cmp	r4, #8
    37f4:	f101 0102 	add.w	r1, r1, #2
    37f8:	d1ed      	bne.n	37d6 <_Z10audio_initv+0x146>
				if (n > max) max = n;
			}
		} while(++channel < 8);
		maxblocks = max;
    37fa:	76dd      	strb	r5, [r3, #27]
    37fc:	e7bd      	b.n	377a <_Z10audio_initv+0xea>
    37fe:	bf00      	nop
    3800:	1fff8200 	.word	0x1fff8200
    3804:	20001fd8 	.word	0x20001fd8
    3808:	20002060 	.word	0x20002060
    380c:	0051b399 	.word	0x0051b399
    3810:	20001850 	.word	0x20001850
    3814:	200016ac 	.word	0x200016ac
    3818:	00a36731 	.word	0x00a36731
    381c:	20001c18 	.word	0x20001c18
    3820:	2000236c 	.word	0x2000236c
    3824:	7fff0000 	.word	0x7fff0000
    3828:	20001c64 	.word	0x20001c64
    382c:	20001db0 	.word	0x20001db0
    3830:	20001b90 	.word	0x20001b90
    3834:	200016e8 	.word	0x200016e8
    3838:	20002020 	.word	0x20002020
    383c:	20001d28 	.word	0x20001d28
    3840:	5b6db6f5 	.word	0x5b6db6f5
    3844:	01d2ad9a 	.word	0x01d2ad9a
    3848:	01d2a98f 	.word	0x01d2a98f
    384c:	ffffffff 	.word	0xffffffff

00003850 <_Z12audio_volumei>:

void audio_volume(int volume) {
    3850:	e92d 41f0 	stmdb	sp!, {r4, r5, r6, r7, r8, lr}
  mixer_output.gain(0, (volume/1023.)*MAIN_GAIN);
    3854:	f008 ffbc 	bl	c7d0 <__aeabi_i2d>
    3858:	a351      	add	r3, pc, #324	; (adr r3, 39a0 <_Z12audio_volumei+0x150>)
    385a:	e9d3 2300 	ldrd	r2, r3, [r3]
    385e:	4604      	mov	r4, r0
    3860:	460d      	mov	r5, r1
    3862:	f009 f945 	bl	caf0 <__aeabi_ddiv>
    3866:	a350      	add	r3, pc, #320	; (adr r3, 39a8 <_Z12audio_volumei+0x158>)
    3868:	e9d3 2300 	ldrd	r2, r3, [r3]
    386c:	4606      	mov	r6, r0
    386e:	460f      	mov	r7, r1
    3870:	f009 f814 	bl	c89c <__aeabi_dmul>
    3874:	f009 faf4 	bl	ce60 <__aeabi_d2f>
		if (gain > 32767.0f) gain = 32767.0f;
    3878:	4951      	ldr	r1, [pc, #324]	; (39c0 <_Z12audio_volumei+0x170>)
    387a:	4680      	mov	r8, r0
    387c:	f009 fe0a 	bl	d494 <__aeabi_fcmpgt>
    3880:	b940      	cbnz	r0, 3894 <_Z12audio_volumei+0x44>
		else if (gain < -32767.0f) gain = -32767.0f;
    3882:	4640      	mov	r0, r8
    3884:	494f      	ldr	r1, [pc, #316]	; (39c4 <_Z12audio_volumei+0x174>)
    3886:	f009 fde7 	bl	d458 <__aeabi_fcmplt>
    388a:	2800      	cmp	r0, #0
    388c:	d07d      	beq.n	398a <_Z12audio_volumei+0x13a>
    388e:	f8df e138 	ldr.w	lr, [pc, #312]	; 39c8 <_Z12audio_volumei+0x178>
    3892:	e001      	b.n	3898 <_Z12audio_volumei+0x48>
		if (gain > 32767.0f) gain = 32767.0f;
    3894:	f8df e134 	ldr.w	lr, [pc, #308]	; 39cc <_Z12audio_volumei+0x17c>
		multiplier[channel] = gain * 65536.0f; // TODO: proper roundoff?
    3898:	f8df 8138 	ldr.w	r8, [pc, #312]	; 39d4 <_Z12audio_volumei+0x184>
  mixer_output.gain(1, (volume/1023.)*DELAY_GAIN);
    389c:	4630      	mov	r0, r6
    389e:	a344      	add	r3, pc, #272	; (adr r3, 39b0 <_Z12audio_volumei+0x160>)
    38a0:	e9d3 2300 	ldrd	r2, r3, [r3]
    38a4:	f8c8 e018 	str.w	lr, [r8, #24]
    38a8:	4639      	mov	r1, r7
    38aa:	f008 fff7 	bl	c89c <__aeabi_dmul>
    38ae:	f009 fad7 	bl	ce60 <__aeabi_d2f>
		if (gain > 32767.0f) gain = 32767.0f;
    38b2:	4943      	ldr	r1, [pc, #268]	; (39c0 <_Z12audio_volumei+0x170>)
    38b4:	4606      	mov	r6, r0
    38b6:	f009 fded 	bl	d494 <__aeabi_fcmpgt>
    38ba:	b938      	cbnz	r0, 38cc <_Z12audio_volumei+0x7c>
		else if (gain < -32767.0f) gain = -32767.0f;
    38bc:	4630      	mov	r0, r6
    38be:	4941      	ldr	r1, [pc, #260]	; (39c4 <_Z12audio_volumei+0x174>)
    38c0:	f009 fdca 	bl	d458 <__aeabi_fcmplt>
    38c4:	2800      	cmp	r0, #0
    38c6:	d057      	beq.n	3978 <_Z12audio_volumei+0x128>
    38c8:	4e3f      	ldr	r6, [pc, #252]	; (39c8 <_Z12audio_volumei+0x178>)
    38ca:	e000      	b.n	38ce <_Z12audio_volumei+0x7e>
		if (gain > 32767.0f) gain = 32767.0f;
    38cc:	4e3f      	ldr	r6, [pc, #252]	; (39cc <_Z12audio_volumei+0x17c>)

  mixer_output.gain(2, (volume/2048.)*KICK_GAIN+0.5);
    38ce:	4620      	mov	r0, r4
    38d0:	4629      	mov	r1, r5
    38d2:	2200      	movs	r2, #0
    38d4:	f04f 537d 	mov.w	r3, #1061158912	; 0x3f400000
		multiplier[channel] = gain * 65536.0f; // TODO: proper roundoff?
    38d8:	f8c8 601c 	str.w	r6, [r8, #28]
    38dc:	f008 ffde 	bl	c89c <__aeabi_dmul>
    38e0:	2200      	movs	r2, #0
    38e2:	4b3b      	ldr	r3, [pc, #236]	; (39d0 <_Z12audio_volumei+0x180>)
    38e4:	4604      	mov	r4, r0
    38e6:	460d      	mov	r5, r1
    38e8:	f008 fe26 	bl	c538 <__adddf3>
    38ec:	f009 fab8 	bl	ce60 <__aeabi_d2f>
		if (gain > 32767.0f) gain = 32767.0f;
    38f0:	4933      	ldr	r1, [pc, #204]	; (39c0 <_Z12audio_volumei+0x170>)
    38f2:	4606      	mov	r6, r0
    38f4:	f009 fdce 	bl	d494 <__aeabi_fcmpgt>
    38f8:	b930      	cbnz	r0, 3908 <_Z12audio_volumei+0xb8>
		else if (gain < -32767.0f) gain = -32767.0f;
    38fa:	4630      	mov	r0, r6
    38fc:	4931      	ldr	r1, [pc, #196]	; (39c4 <_Z12audio_volumei+0x174>)
    38fe:	f009 fdab 	bl	d458 <__aeabi_fcmplt>
    3902:	b380      	cbz	r0, 3966 <_Z12audio_volumei+0x116>
    3904:	4e30      	ldr	r6, [pc, #192]	; (39c8 <_Z12audio_volumei+0x178>)
    3906:	e000      	b.n	390a <_Z12audio_volumei+0xba>
		if (gain > 32767.0f) gain = 32767.0f;
    3908:	4e30      	ldr	r6, [pc, #192]	; (39cc <_Z12audio_volumei+0x17c>)
  mixer_output.gain(3, (volume/2048.)*HAT_GAIN+0.5);
    390a:	a32b      	add	r3, pc, #172	; (adr r3, 39b8 <_Z12audio_volumei+0x168>)
    390c:	e9d3 2300 	ldrd	r2, r3, [r3]
    3910:	4620      	mov	r0, r4
    3912:	4629      	mov	r1, r5
		multiplier[channel] = gain * 65536.0f; // TODO: proper roundoff?
    3914:	f8c8 6020 	str.w	r6, [r8, #32]
    3918:	f008 ffc0 	bl	c89c <__aeabi_dmul>
    391c:	2200      	movs	r2, #0
    391e:	4b2c      	ldr	r3, [pc, #176]	; (39d0 <_Z12audio_volumei+0x180>)
    3920:	f008 fe0a 	bl	c538 <__adddf3>
    3924:	f009 fa9c 	bl	ce60 <__aeabi_d2f>
		if (gain > 32767.0f) gain = 32767.0f;
    3928:	4925      	ldr	r1, [pc, #148]	; (39c0 <_Z12audio_volumei+0x170>)
    392a:	4604      	mov	r4, r0
    392c:	f009 fdb2 	bl	d494 <__aeabi_fcmpgt>
    3930:	b948      	cbnz	r0, 3946 <_Z12audio_volumei+0xf6>
		else if (gain < -32767.0f) gain = -32767.0f;
    3932:	4620      	mov	r0, r4
    3934:	4923      	ldr	r1, [pc, #140]	; (39c4 <_Z12audio_volumei+0x174>)
    3936:	f009 fd8f 	bl	d458 <__aeabi_fcmplt>
    393a:	b148      	cbz	r0, 3950 <_Z12audio_volumei+0x100>
    393c:	4822      	ldr	r0, [pc, #136]	; (39c8 <_Z12audio_volumei+0x178>)
		multiplier[channel] = gain * 65536.0f; // TODO: proper roundoff?
    393e:	f8c8 0024 	str.w	r0, [r8, #36]	; 0x24
    3942:	e8bd 81f0 	ldmia.w	sp!, {r4, r5, r6, r7, r8, pc}
		if (gain > 32767.0f) gain = 32767.0f;
    3946:	4821      	ldr	r0, [pc, #132]	; (39cc <_Z12audio_volumei+0x17c>)
		multiplier[channel] = gain * 65536.0f; // TODO: proper roundoff?
    3948:	f8c8 0024 	str.w	r0, [r8, #36]	; 0x24
    394c:	e8bd 81f0 	ldmia.w	sp!, {r4, r5, r6, r7, r8, pc}
    3950:	f04f 418f 	mov.w	r1, #1199570944	; 0x47800000
    3954:	4620      	mov	r0, r4
    3956:	f009 fbe1 	bl	d11c <__aeabi_fmul>
    395a:	f009 fda5 	bl	d4a8 <__aeabi_f2iz>
    395e:	f8c8 0024 	str.w	r0, [r8, #36]	; 0x24
    3962:	e8bd 81f0 	ldmia.w	sp!, {r4, r5, r6, r7, r8, pc}
    3966:	4630      	mov	r0, r6
    3968:	f04f 418f 	mov.w	r1, #1199570944	; 0x47800000
    396c:	f009 fbd6 	bl	d11c <__aeabi_fmul>
    3970:	f009 fd9a 	bl	d4a8 <__aeabi_f2iz>
    3974:	4606      	mov	r6, r0
    3976:	e7c8      	b.n	390a <_Z12audio_volumei+0xba>
    3978:	4630      	mov	r0, r6
    397a:	f04f 418f 	mov.w	r1, #1199570944	; 0x47800000
    397e:	f009 fbcd 	bl	d11c <__aeabi_fmul>
    3982:	f009 fd91 	bl	d4a8 <__aeabi_f2iz>
    3986:	4606      	mov	r6, r0
    3988:	e7a1      	b.n	38ce <_Z12audio_volumei+0x7e>
    398a:	f04f 418f 	mov.w	r1, #1199570944	; 0x47800000
    398e:	4640      	mov	r0, r8
    3990:	f009 fbc4 	bl	d11c <__aeabi_fmul>
    3994:	f009 fd88 	bl	d4a8 <__aeabi_f2iz>
    3998:	4686      	mov	lr, r0
    399a:	e77d      	b.n	3898 <_Z12audio_volumei+0x48>
    399c:	f3af 8000 	nop.w
    39a0:	00000000 	.word	0x00000000
    39a4:	408ff800 	.word	0x408ff800
    39a8:	9999999a 	.word	0x9999999a
    39ac:	3fe99999 	.word	0x3fe99999
    39b0:	33333333 	.word	0x33333333
    39b4:	3fe33333 	.word	0x3fe33333
    39b8:	cccccccd 	.word	0xcccccccd
    39bc:	3feccccc 	.word	0x3feccccc
    39c0:	46fffe00 	.word	0x46fffe00
    39c4:	c6fffe00 	.word	0xc6fffe00
    39c8:	80010000 	.word	0x80010000
    39cc:	7fff0000 	.word	0x7fff0000
    39d0:	3fe00000 	.word	0x3fe00000
    39d4:	200016e8 	.word	0x200016e8

000039d8 <_Z15sequencer_startv>:
}

void sequencer_start() {
    39d8:	b508      	push	{r3, lr}
            mSerial.write((byte)inType);
    39da:	4b0a      	ldr	r3, [pc, #40]	; (3a04 <_Z15sequencer_startv+0x2c>)
    39dc:	6c98      	ldr	r0, [r3, #72]	; 0x48
    39de:	6803      	ldr	r3, [r0, #0]
    39e0:	21fb      	movs	r1, #251	; 0xfb
    39e2:	681b      	ldr	r3, [r3, #0]
    39e4:	4798      	blx	r3
  MIDI.sendRealTime(midi::Continue);
  tempo_handler.midi_clock_reset();
    39e6:	4b08      	ldr	r3, [pc, #32]	; (3a08 <_Z15sequencer_startv+0x30>)
      if(_source == TEMPO_SOURCE_MIDI) {
    39e8:	7b1a      	ldrb	r2, [r3, #12]
    39ea:	2a01      	cmp	r2, #1
    39ec:	d105      	bne.n	39fa <_Z15sequencer_startv+0x22>
        midi_clock = 11; // One less than our overflow, so the next MIDI clock tick triggers a callback
    39ee:	4907      	ldr	r1, [pc, #28]	; (3a0c <_Z15sequencer_startv+0x34>)
    39f0:	200b      	movs	r0, #11
        _midi_clock_block = 0;
    39f2:	2200      	movs	r2, #0
        midi_clock = 11; // One less than our overflow, so the next MIDI clock tick triggers a callback
    39f4:	6008      	str	r0, [r1, #0]
        _midi_clock_block = 0;
    39f6:	f883 2022 	strb.w	r2, [r3, #34]	; 0x22
  sequencer_is_running = true;
    39fa:	4b05      	ldr	r3, [pc, #20]	; (3a10 <_Z15sequencer_startv+0x38>)
    39fc:	2201      	movs	r2, #1
    39fe:	701a      	strb	r2, [r3, #0]
    3a00:	bd08      	pop	{r3, pc}
    3a02:	bf00      	nop
    3a04:	2000209c 	.word	0x2000209c
    3a08:	20001cc0 	.word	0x20001cc0
    3a0c:	20001a74 	.word	0x20001a74
    3a10:	20002369 	.word	0x20002369

00003a14 <_Z8led_initv>:
};

void led_init();
void led_update();

void led_init() {
    3a14:	e92d 43f0 	stmdb	sp!, {r4, r5, r6, r7, r8, r9, lr}
	/// @tparam DATA_PIN - the optional data pin for the leds (required)
	/// @tparam RGB_ORDER - the rgb ordering for the leds (e.g. what order red, green, and blue data is written out in)
	/// @returns a reference to the added controller
	template<template<uint8_t DATA_PIN, EOrder RGB_ORDER> class CHIPSET, uint8_t DATA_PIN, EOrder RGB_ORDER>
	static CLEDController &addLeds(struct CRGB *data, int nLedsOrOffset, int nLedsIfOffset = 0) {
		static CHIPSET<DATA_PIN, RGB_ORDER> c;
    3a18:	483b      	ldr	r0, [pc, #236]	; (3b08 <_Z8led_initv+0xf4>)
    3a1a:	6803      	ldr	r3, [r0, #0]
    3a1c:	f013 0401 	ands.w	r4, r3, #1
    3a20:	b083      	sub	sp, #12
    3a22:	d04d      	beq.n	3ac0 <_Z8led_initv+0xac>
		return addLeds(&c, data, nLedsOrOffset, nLedsIfOffset);
    3a24:	4c39      	ldr	r4, [pc, #228]	; (3b0c <_Z8led_initv+0xf8>)
	//@}
#endif

	/// Set the global brightness scaling
	/// @param scale a 0-255 value for how much to scale all leds before writing them out
	void setBrightness(uint8_t scale) { m_Scale = scale; }
    3a26:	4f3a      	ldr	r7, [pc, #232]	; (3b10 <_Z8led_initv+0xfc>)
		return addLeds(&c, data, nLedsOrOffset, nLedsIfOffset);
    3a28:	483a      	ldr	r0, [pc, #232]	; (3b14 <_Z8led_initv+0x100>)
    3a2a:	4d3b      	ldr	r5, [pc, #236]	; (3b18 <_Z8led_initv+0x104>)
    3a2c:	4e3b      	ldr	r6, [pc, #236]	; (3b1c <_Z8led_initv+0x108>)
  #ifdef DEV_MODE
     physical_leds[0] = CRGB::Blue;
  #endif

  for(int i = 0; i < 10; i++) {
    physical_leds[i+9] = COLORS[SCALE[i]%24];
    3a2e:	f8df 90fc 	ldr.w	r9, [pc, #252]	; 3b2c <_Z8led_initv+0x118>
    3a32:	4621      	mov	r1, r4
    3a34:	2213      	movs	r2, #19
    3a36:	2300      	movs	r3, #0
    3a38:	f007 fb64 	bl	b104 <_ZN8CFastLED7addLedsEP14CLEDControllerP4CRGBii>
	void setBrightness(uint8_t scale) { m_Scale = scale; }
    3a3c:	f04f 0e20 	mov.w	lr, #32
    : r((colorcode >> 16) & 0xFF), g((colorcode >> 8) & 0xFF), b((colorcode >> 0) & 0xFF)
    3a40:	23e0      	movs	r3, #224	; 0xe0
    3a42:	22f1      	movs	r2, #241	; 0xf1
    3a44:	f04f 08ff 	mov.w	r8, #255	; 0xff
    3a48:	f887 e000 	strb.w	lr, [r7]
  FastLED.setCorrection(CORRECTION_SK6812);
    3a4c:	4638      	mov	r0, r7
    3a4e:	a901      	add	r1, sp, #4
    3a50:	f88d 3006 	strb.w	r3, [sp, #6]
    3a54:	f88d 2005 	strb.w	r2, [sp, #5]
    3a58:	f88d 8004 	strb.w	r8, [sp, #4]
    3a5c:	f007 fb8a 	bl	b174 <_ZN8CFastLED13setCorrectionERK4CRGB>
  FastLED.clear();
    3a60:	4638      	mov	r0, r7
    3a62:	2100      	movs	r1, #0
    3a64:	f007 fc8a 	bl	b37c <_ZN8CFastLED5clearEb>
	/// Update all our controllers with the current led colors, using the passed in brightness
	/// @param scale temporarily override the scale
	void show(uint8_t scale);

	/// Update all our controllers with the current led colors
	void show() { show(m_Scale); }
    3a68:	4638      	mov	r0, r7
    3a6a:	7839      	ldrb	r1, [r7, #0]
    3a6c:	f007 fbba 	bl	b1e4 <_ZN8CFastLED4showEh>
    }

    /// allow assignment from 32-bit (really 24-bit) 0xRRGGBB color code
	inline CRGB& operator= (const uint32_t colorcode) __attribute__((always_inline))
    {
        r = (colorcode >> 16) & 0xFF;
    3a70:	2300      	movs	r3, #0
        g = (colorcode >>  8) & 0xFF;
        b = (colorcode >>  0) & 0xFF;
    3a72:	f884 8002 	strb.w	r8, [r4, #2]
        r = (colorcode >> 16) & 0xFF;
    3a76:	7023      	strb	r3, [r4, #0]
        g = (colorcode >>  8) & 0xFF;
    3a78:	7063      	strb	r3, [r4, #1]
    3a7a:	f105 080a 	add.w	r8, r5, #10
    physical_leds[i+9] = COLORS[SCALE[i]%24];
    3a7e:	f815 3f01 	ldrb.w	r3, [r5, #1]!
    3a82:	fba9 1203 	umull	r1, r2, r9, r3
    3a86:	0912      	lsrs	r2, r2, #4
    3a88:	eb02 0242 	add.w	r2, r2, r2, lsl #1
    3a8c:	eba3 02c2 	sub.w	r2, r3, r2, lsl #3
    3a90:	b2d2      	uxtb	r2, r2
    3a92:	eb02 0242 	add.w	r2, r2, r2, lsl #1
    3a96:	18b3      	adds	r3, r6, r2
        r = rhs.r;
    3a98:	5cb1      	ldrb	r1, [r6, r2]
        g = rhs.g;
    3a9a:	785a      	ldrb	r2, [r3, #1]
        b = rhs.b;
    3a9c:	789b      	ldrb	r3, [r3, #2]
        r = rhs.r;
    3a9e:	76e1      	strb	r1, [r4, #27]
        g = rhs.g;
    3aa0:	7722      	strb	r2, [r4, #28]
        b = rhs.b;
    3aa2:	7763      	strb	r3, [r4, #29]
    delay(40);
    3aa4:	2028      	movs	r0, #40	; 0x28
    3aa6:	f003 faa5 	bl	6ff4 <delay>
    3aaa:	4819      	ldr	r0, [pc, #100]	; (3b10 <_Z8led_initv+0xfc>)
    3aac:	7839      	ldrb	r1, [r7, #0]
    3aae:	f007 fb99 	bl	b1e4 <_ZN8CFastLED4showEh>
  for(int i = 0; i < 10; i++) {
    3ab2:	4545      	cmp	r5, r8
    3ab4:	f104 0403 	add.w	r4, r4, #3
    3ab8:	d1e1      	bne.n	3a7e <_Z8led_initv+0x6a>
    FastLED.show();
  }
}
    3aba:	b003      	add	sp, #12
    3abc:	e8bd 83f0 	ldmia.w	sp!, {r4, r5, r6, r7, r8, r9, pc}
		static CHIPSET<DATA_PIN, RGB_ORDER> c;
    3ac0:	f003 f8a2 	bl	6c08 <__cxa_guard_acquire>
    3ac4:	2800      	cmp	r0, #0
    3ac6:	d0ad      	beq.n	3a24 <_Z8led_initv+0x10>
        if(m_pHead==NULL) { m_pHead = this; }
    3ac8:	4915      	ldr	r1, [pc, #84]	; (3b20 <_Z8led_initv+0x10c>)
    CLEDController() : m_Data(NULL), m_ColorCorrection(UncorrectedColor), m_ColorTemperature(UncorrectedTemperature), m_DitherMode(BINARY_DITHER), m_nLeds(0) {
    3aca:	4a12      	ldr	r2, [pc, #72]	; (3b14 <_Z8led_initv+0x100>)
        if(m_pHead==NULL) { m_pHead = this; }
    3acc:	6808      	ldr	r0, [r1, #0]
    CLEDController() : m_Data(NULL), m_ColorCorrection(UncorrectedColor), m_ColorTemperature(UncorrectedTemperature), m_DitherMode(BINARY_DITHER), m_nLeds(0) {
    3ace:	6054      	str	r4, [r2, #4]
    : r((colorcode >> 16) & 0xFF), g((colorcode >> 8) & 0xFF), b((colorcode >> 0) & 0xFF)
    3ad0:	23ff      	movs	r3, #255	; 0xff
    3ad2:	2501      	movs	r5, #1
    3ad4:	6154      	str	r4, [r2, #20]
        m_pNext = NULL;
    3ad6:	6094      	str	r4, [r2, #8]
    CLEDController() : m_Data(NULL), m_ColorCorrection(UncorrectedColor), m_ColorTemperature(UncorrectedTemperature), m_DitherMode(BINARY_DITHER), m_nLeds(0) {
    3ad8:	7495      	strb	r5, [r2, #18]
    3ada:	7313      	strb	r3, [r2, #12]
    3adc:	7353      	strb	r3, [r2, #13]
    3ade:	7393      	strb	r3, [r2, #14]
    : r((colorcode >> 16) & 0xFF), g((colorcode >> 8) & 0xFF), b((colorcode >> 0) & 0xFF)
    3ae0:	73d3      	strb	r3, [r2, #15]
    3ae2:	7413      	strb	r3, [r2, #16]
    3ae4:	7453      	strb	r3, [r2, #17]
        if(m_pHead==NULL) { m_pHead = this; }
    3ae6:	b160      	cbz	r0, 3b02 <_Z8led_initv+0xee>
        if(m_pTail != NULL) { m_pTail->m_pNext = this; }
    3ae8:	4b0e      	ldr	r3, [pc, #56]	; (3b24 <_Z8led_initv+0x110>)
    3aea:	6819      	ldr	r1, [r3, #0]
    3aec:	b101      	cbz	r1, 3af0 <_Z8led_initv+0xdc>
    3aee:	608a      	str	r2, [r1, #8]
	CMinWait() { mLastMicros = 0; }
    3af0:	2400      	movs	r4, #0
template<uint8_t DATA_PIN, EOrder RGB_ORDER> class SK6812 : public SK6812Controller<DATA_PIN, RGB_ORDER> {};
    3af2:	490d      	ldr	r1, [pc, #52]	; (3b28 <_Z8led_initv+0x114>)
		static CHIPSET<DATA_PIN, RGB_ORDER> c;
    3af4:	4804      	ldr	r0, [pc, #16]	; (3b08 <_Z8led_initv+0xf4>)
    3af6:	8414      	strh	r4, [r2, #32]
        m_pTail = this;
    3af8:	601a      	str	r2, [r3, #0]
template<uint8_t DATA_PIN, EOrder RGB_ORDER> class SK6812 : public SK6812Controller<DATA_PIN, RGB_ORDER> {};
    3afa:	6011      	str	r1, [r2, #0]
		static CHIPSET<DATA_PIN, RGB_ORDER> c;
    3afc:	f003 f88a 	bl	6c14 <__cxa_guard_release>
    3b00:	e790      	b.n	3a24 <_Z8led_initv+0x10>
        if(m_pHead==NULL) { m_pHead = this; }
    3b02:	600a      	str	r2, [r1, #0]
    3b04:	e7f0      	b.n	3ae8 <_Z8led_initv+0xd4>
    3b06:	bf00      	nop
    3b08:	200016a8 	.word	0x200016a8
    3b0c:	200018e0 	.word	0x200018e0
    3b10:	200027bc 	.word	0x200027bc
    3b14:	20001684 	.word	0x20001684
    3b18:	00011867 	.word	0x00011867
    3b1c:	2000196c 	.word	0x2000196c
    3b20:	200027cc 	.word	0x200027cc
    3b24:	200027dc 	.word	0x200027dc
    3b28:	00011830 	.word	0x00011830
    3b2c:	aaaaaaab 	.word	0xaaaaaaab

00003b30 <_Z10led_updatev>:

// Updates the LED colour and brightness to match the stored sequence
void led_update() {
    3b30:	e92d 4ff0 	stmdb	sp!, {r4, r5, r6, r7, r8, r9, sl, fp, lr}
      if(!step_enable[current_step]) {
        leds(current_step) = CRGB::Black;
      }

      if(!sequencer_is_running) {
        if(((sequencer_clock % 24) < 12)) {
    3b34:	4b96      	ldr	r3, [pc, #600]	; (3d90 <_Z10led_updatev+0x260>)
    3b36:	f8df a284 	ldr.w	sl, [pc, #644]	; 3dbc <_Z10led_updatev+0x28c>
    3b3a:	f893 b000 	ldrb.w	fp, [r3]
      leds(current_step) = LED_WHITE;
    3b3e:	4b95      	ldr	r3, [pc, #596]	; (3d94 <_Z10led_updatev+0x264>)
    if(note_is_playing) {
    3b40:	4a95      	ldr	r2, [pc, #596]	; (3d98 <_Z10led_updatev+0x268>)
      leds(current_step) = LED_WHITE;
    3b42:	781d      	ldrb	r5, [r3, #0]
      if(!sequencer_is_running) {
    3b44:	4b95      	ldr	r3, [pc, #596]	; (3d9c <_Z10led_updatev+0x26c>)
    if(note_is_playing) {
    3b46:	7810      	ldrb	r0, [r2, #0]
      if(!sequencer_is_running) {
    3b48:	f893 9000 	ldrb.w	r9, [r3]
    3b4c:	4c94      	ldr	r4, [pc, #592]	; (3da0 <_Z10led_updatev+0x270>)
    3b4e:	4a95      	ldr	r2, [pc, #596]	; (3da4 <_Z10led_updatev+0x274>)
    3b50:	4995      	ldr	r1, [pc, #596]	; (3da8 <_Z10led_updatev+0x278>)
      leds(l) = COLORS[step_note[l]%24];
    3b52:	f8df 826c 	ldr.w	r8, [pc, #620]	; 3dc0 <_Z10led_updatev+0x290>
        if(((sequencer_clock % 24) < 12)) {
    3b56:	fbaa 3c0b 	umull	r3, ip, sl, fp
            leds(next_step) = COLORS[step_note[next_step]%24];
          } else {
            leds(next_step) = CRGB::Black;
          }
          led_play = LED_WHITE;
          led_play.fadeLightBy((sequencer_clock % 12)*16);
    3b5a:	ea4f 03dc 	mov.w	r3, ip, lsr #3
    3b5e:	eb03 0343 	add.w	r3, r3, r3, lsl #1
    3b62:	ebab 0683 	sub.w	r6, fp, r3, lsl #2
    }

    /// fadeLightBy is a synonym for nscale8_video( ..., 255-fadefactor)
    inline CRGB& fadeLightBy (uint8_t fadefactor )
    {
        nscale8x3_video( r, g, b, 255 - fadefactor);
    3b66:	ea6f 1606 	mvn.w	r6, r6, lsl #4
    3b6a:	b2f6      	uxtb	r6, r6
LIB8STATIC void nscale8x3_video( uint8_t& r, uint8_t& g, uint8_t& b, fract8 scale)
{
#if SCALE8_C == 1
    uint8_t nonzeroscale = (scale != 0) ? 1 : 0;
    r = (r == 0) ? 0 : (((int)r * (int)(scale) ) >> 8) + nonzeroscale;
    g = (g == 0) ? 0 : (((int)g * (int)(scale) ) >> 8) + nonzeroscale;
    3b6c:	b237      	sxth	r7, r6
    b = (b == 0) ? 0 : (((int)b * (int)(scale) ) >> 8) + nonzeroscale;
    3b6e:	eb07 0e87 	add.w	lr, r7, r7, lsl #2
    r = (r == 0) ? 0 : (((int)r * (int)(scale) ) >> 8) + nonzeroscale;
    3b72:	23e6      	movs	r3, #230	; 0xe6
    3b74:	fb16 f603 	smulbb	r6, r6, r3
        if(((sequencer_clock % 24) < 12)) {
    3b78:	ea4f 1c1c 	mov.w	ip, ip, lsr #4
    b = (b == 0) ? 0 : (((int)b * (int)(scale) ) >> 8) + nonzeroscale;
    3b7c:	ebce 1e0e 	rsb	lr, lr, lr, lsl #4
    g = (g == 0) ? 0 : (((int)g * (int)(scale) ) >> 8) + nonzeroscale;
    3b80:	ebc7 2707 	rsb	r7, r7, r7, lsl #8
    3b84:	eb0c 0c4c 	add.w	ip, ip, ip, lsl #1
    b = (b == 0) ? 0 : (((int)b * (int)(scale) ) >> 8) + nonzeroscale;
    3b88:	ea4f 1eee 	mov.w	lr, lr, asr #7
    g = (g == 0) ? 0 : (((int)g * (int)(scale) ) >> 8) + nonzeroscale;
    3b8c:	123f      	asrs	r7, r7, #8
    r = (r == 0) ? 0 : (((int)r * (int)(scale) ) >> 8) + nonzeroscale;
    3b8e:	1236      	asrs	r6, r6, #8
void led_update() {
    3b90:	b085      	sub	sp, #20
        if(((sequencer_clock % 24) < 12)) {
    3b92:	ebab 0ccc 	sub.w	ip, fp, ip, lsl #3
    b = (b == 0) ? 0 : (((int)b * (int)(scale) ) >> 8) + nonzeroscale;
    3b96:	f10e 0e01 	add.w	lr, lr, #1
    g = (g == 0) ? 0 : (((int)g * (int)(scale) ) >> 8) + nonzeroscale;
    3b9a:	3701      	adds	r7, #1
    r = (r == 0) ? 0 : (((int)r * (int)(scale) ) >> 8) + nonzeroscale;
    3b9c:	3601      	adds	r6, #1
          if(step_enable[next_step]) {
    3b9e:	f105 0b01 	add.w	fp, r5, #1
        if(((sequencer_clock % 24) < 12)) {
    3ba2:	fa5f fc8c 	uxtb.w	ip, ip
    b = (b == 0) ? 0 : (((int)b * (int)(scale) ) >> 8) + nonzeroscale;
    3ba6:	fa5f fe8e 	uxtb.w	lr, lr
    g = (g == 0) ? 0 : (((int)g * (int)(scale) ) >> 8) + nonzeroscale;
    3baa:	b2ff      	uxtb	r7, r7
    r = (r == 0) ? 0 : (((int)r * (int)(scale) ) >> 8) + nonzeroscale;
    3bac:	b2f6      	uxtb	r6, r6
    3bae:	f8cd c000 	str.w	ip, [sp]
    b = (b == 0) ? 0 : (((int)b * (int)(scale) ) >> 8) + nonzeroscale;
    3bb2:	f8cd e00c 	str.w	lr, [sp, #12]
    g = (g == 0) ? 0 : (((int)g * (int)(scale) ) >> 8) + nonzeroscale;
    3bb6:	9702      	str	r7, [sp, #8]
    r = (r == 0) ? 0 : (((int)r * (int)(scale) ) >> 8) + nonzeroscale;
    3bb8:	9601      	str	r6, [sp, #4]
          if(step_enable[next_step]) {
    3bba:	f00b 0b07 	and.w	fp, fp, #7
  for (int l = 0; l < SEQUENCER_NUM_STEPS; l++) {
    3bbe:	2300      	movs	r3, #0
        g = rhs.g;
    3bc0:	f04f 0aff 	mov.w	sl, #255	; 0xff
    if (step_enable[l]) {
    3bc4:	5ce6      	ldrb	r6, [r4, r3]
    3bc6:	2e00      	cmp	r6, #0
    3bc8:	f000 80a6 	beq.w	3d18 <_Z10led_updatev+0x1e8>
      leds(l) = COLORS[step_note[l]%24];
    3bcc:	4e77      	ldr	r6, [pc, #476]	; (3dac <_Z10led_updatev+0x27c>)
    3bce:	f8df e1ec 	ldr.w	lr, [pc, #492]	; 3dbc <_Z10led_updatev+0x28c>
    3bd2:	5d9f      	ldrb	r7, [r3, r6]
    3bd4:	f851 6023 	ldr.w	r6, [r1, r3, lsl #2]
    3bd8:	fbae ec07 	umull	lr, ip, lr, r7
    3bdc:	ea4f 1c1c 	mov.w	ip, ip, lsr #4
    3be0:	eb0c 0c4c 	add.w	ip, ip, ip, lsl #1
    3be4:	eba7 0ccc 	sub.w	ip, r7, ip, lsl #3
    3be8:	fa5f fc8c 	uxtb.w	ip, ip
    3bec:	eb0c 0c4c 	add.w	ip, ip, ip, lsl #1
    3bf0:	eb08 070c 	add.w	r7, r8, ip
    3bf4:	eb06 0e46 	add.w	lr, r6, r6, lsl #1
    3bf8:	eb02 060e 	add.w	r6, r2, lr
        r = rhs.r;
    3bfc:	f818 c00c 	ldrb.w	ip, [r8, ip]
    3c00:	f802 c00e 	strb.w	ip, [r2, lr]
        g = rhs.g;
    3c04:	f897 e001 	ldrb.w	lr, [r7, #1]
        b = rhs.b;
    3c08:	78bf      	ldrb	r7, [r7, #2]
        g = rhs.g;
    3c0a:	f886 e001 	strb.w	lr, [r6, #1]
        b = rhs.b;
    3c0e:	70b7      	strb	r7, [r6, #2]
    if(note_is_playing) {
    3c10:	2800      	cmp	r0, #0
    3c12:	d042      	beq.n	3c9a <_Z10led_updatev+0x16a>
      leds(current_step) = LED_WHITE;
    3c14:	f851 7025 	ldr.w	r7, [r1, r5, lsl #2]
    3c18:	eb07 0747 	add.w	r7, r7, r7, lsl #1
    3c1c:	eb02 0e07 	add.w	lr, r2, r7
        r = rhs.r;
    3c20:	f06f 0619 	mvn.w	r6, #25
        b = rhs.b;
    3c24:	f06f 0c69 	mvn.w	ip, #105	; 0x69
        r = rhs.r;
    3c28:	55d6      	strb	r6, [r2, r7]
        g = rhs.g;
    3c2a:	f88e a001 	strb.w	sl, [lr, #1]
        b = rhs.b;
    3c2e:	f88e c002 	strb.w	ip, [lr, #2]
  for (int l = 0; l < SEQUENCER_NUM_STEPS; l++) {
    3c32:	3301      	adds	r3, #1
    3c34:	2b08      	cmp	r3, #8
    3c36:	d1c5      	bne.n	3bc4 <_Z10led_updatev+0x94>
	void show() { show(m_Scale); }
    3c38:	485d      	ldr	r0, [pc, #372]	; (3db0 <_Z10led_updatev+0x280>)
    3c3a:	7801      	ldrb	r1, [r0, #0]
    3c3c:	f007 fad2 	bl	b1e4 <_ZN8CFastLED4showEh>
		if (flag) new_output = false;
		__enable_irq();
		return flag;
	}
	float read(void) {
		__disable_irq();
    3c40:	b672      	cpsid	i
		int min = min_sample;
    3c42:	4b5c      	ldr	r3, [pc, #368]	; (3db4 <_Z10led_updatev+0x284>)
		int max = max_sample;
		min_sample = 32767;
    3c44:	f647 74ff 	movw	r4, #32767	; 0x7fff
		max_sample = -32768;
    3c48:	f44f 4100 	mov.w	r1, #32768	; 0x8000
		int min = min_sample;
    3c4c:	f9b3 201e 	ldrsh.w	r2, [r3, #30]
		int max = max_sample;
    3c50:	f9b3 0020 	ldrsh.w	r0, [r3, #32]
		min_sample = 32767;
    3c54:	83dc      	strh	r4, [r3, #30]
		max_sample = -32768;
    3c56:	8419      	strh	r1, [r3, #32]
		__enable_irq();
    3c58:	b662      	cpsie	i
		min = abs(min);
    3c5a:	ea82 73e2 	eor.w	r3, r2, r2, asr #31
    3c5e:	eba3 73e2 	sub.w	r3, r3, r2, asr #31
		max = abs(max);
    3c62:	2800      	cmp	r0, #0
    3c64:	bfb8      	it	lt
    3c66:	4240      	neglt	r0, r0
		if (min > max) max = min;
		return (float)max / 32767.0f;
    3c68:	4298      	cmp	r0, r3
    3c6a:	bfb8      	it	lt
    3c6c:	4618      	movlt	r0, r3
    3c6e:	f009 fa01 	bl	d074 <__aeabi_i2f>
    3c72:	4951      	ldr	r1, [pc, #324]	; (3db8 <_Z10led_updatev+0x288>)
    3c74:	f009 fb06 	bl	d284 <__aeabi_fdiv>
        led_play = LED_WHITE;
      }
    }
  }
  FastLED.show();
  analogWrite(ENV_LED, 255-((int)(peak1.read()*255.)));
    3c78:	f008 fdbc 	bl	c7f4 <__aeabi_f2d>
    3c7c:	a342      	add	r3, pc, #264	; (adr r3, 3d88 <_Z10led_updatev+0x258>)
    3c7e:	e9d3 2300 	ldrd	r2, r3, [r3]
    3c82:	f008 fe0b 	bl	c89c <__aeabi_dmul>
    3c86:	f009 f8a3 	bl	cdd0 <__aeabi_d2iz>
    3c8a:	f1c0 01ff 	rsb	r1, r0, #255	; 0xff
    3c8e:	2005      	movs	r0, #5
  //TODO: filter and pulse led should be set here as well
}
    3c90:	b005      	add	sp, #20
    3c92:	e8bd 4ff0 	ldmia.w	sp!, {r4, r5, r6, r7, r8, r9, sl, fp, lr}
  analogWrite(ENV_LED, 255-((int)(peak1.read()*255.)));
    3c96:	f003 b875 	b.w	6d84 <analogWrite>
      if(!step_enable[current_step]) {
    3c9a:	5d66      	ldrb	r6, [r4, r5]
    3c9c:	b93e      	cbnz	r6, 3cae <_Z10led_updatev+0x17e>
        leds(current_step) = CRGB::Black;
    3c9e:	f851 7025 	ldr.w	r7, [r1, r5, lsl #2]
    3ca2:	eb07 0747 	add.w	r7, r7, r7, lsl #1
    3ca6:	19d6      	adds	r6, r2, r7
        r = (colorcode >> 16) & 0xFF;
    3ca8:	55d0      	strb	r0, [r2, r7]
        g = (colorcode >>  8) & 0xFF;
    3caa:	7070      	strb	r0, [r6, #1]
        b = (colorcode >>  0) & 0xFF;
    3cac:	70b0      	strb	r0, [r6, #2]
      if(!sequencer_is_running) {
    3cae:	f1b9 0f00 	cmp.w	r9, #0
    3cb2:	d13c      	bne.n	3d2e <_Z10led_updatev+0x1fe>
        if(((sequencer_clock % 24) < 12)) {
    3cb4:	9e00      	ldr	r6, [sp, #0]
    3cb6:	2e0b      	cmp	r6, #11
    3cb8:	d84e      	bhi.n	3d58 <_Z10led_updatev+0x228>
          if(step_enable[next_step]) {
    3cba:	f814 600b 	ldrb.w	r6, [r4, fp]
    3cbe:	2e00      	cmp	r6, #0
    3cc0:	d03e      	beq.n	3d40 <_Z10led_updatev+0x210>
            leds(next_step) = COLORS[step_note[next_step]%24];
    3cc2:	f8df c0e8 	ldr.w	ip, [pc, #232]	; 3dac <_Z10led_updatev+0x27c>
    3cc6:	f851 602b 	ldr.w	r6, [r1, fp, lsl #2]
    3cca:	f81c 700b 	ldrb.w	r7, [ip, fp]
    3cce:	f8df c0ec 	ldr.w	ip, [pc, #236]	; 3dbc <_Z10led_updatev+0x28c>
    3cd2:	fbac ce07 	umull	ip, lr, ip, r7
    3cd6:	ea4f 1e1e 	mov.w	lr, lr, lsr #4
    3cda:	eb0e 0e4e 	add.w	lr, lr, lr, lsl #1
    3cde:	eba7 0ece 	sub.w	lr, r7, lr, lsl #3
    3ce2:	fa5f fc8e 	uxtb.w	ip, lr
    3ce6:	eb0c 0c4c 	add.w	ip, ip, ip, lsl #1
    3cea:	eb08 070c 	add.w	r7, r8, ip
    3cee:	eb06 0e46 	add.w	lr, r6, r6, lsl #1
    3cf2:	eb02 060e 	add.w	r6, r2, lr
        r = rhs.r;
    3cf6:	f818 c00c 	ldrb.w	ip, [r8, ip]
    3cfa:	f802 c00e 	strb.w	ip, [r2, lr]
        g = rhs.g;
    3cfe:	f897 e001 	ldrb.w	lr, [r7, #1]
        b = rhs.b;
    3d02:	78bf      	ldrb	r7, [r7, #2]
        g = rhs.g;
    3d04:	f886 e001 	strb.w	lr, [r6, #1]
        b = rhs.b;
    3d08:	70b7      	strb	r7, [r6, #2]
    3d0a:	9e01      	ldr	r6, [sp, #4]
    3d0c:	7016      	strb	r6, [r2, #0]
    g = (g == 0) ? 0 : (((int)g * (int)(scale) ) >> 8) + nonzeroscale;
    3d0e:	9e02      	ldr	r6, [sp, #8]
    3d10:	7056      	strb	r6, [r2, #1]
    b = (b == 0) ? 0 : (((int)b * (int)(scale) ) >> 8) + nonzeroscale;
    3d12:	9e03      	ldr	r6, [sp, #12]
    3d14:	7096      	strb	r6, [r2, #2]
    3d16:	e78c      	b.n	3c32 <_Z10led_updatev+0x102>
      leds(l) = CRGB::Black;
    3d18:	f851 7023 	ldr.w	r7, [r1, r3, lsl #2]
    3d1c:	eb07 0e47 	add.w	lr, r7, r7, lsl #1
    3d20:	eb02 070e 	add.w	r7, r2, lr
        r = (colorcode >> 16) & 0xFF;
    3d24:	f802 600e 	strb.w	r6, [r2, lr]
        g = (colorcode >>  8) & 0xFF;
    3d28:	707e      	strb	r6, [r7, #1]
        b = (colorcode >>  0) & 0xFF;
    3d2a:	70be      	strb	r6, [r7, #2]
    3d2c:	e770      	b.n	3c10 <_Z10led_updatev+0xe0>
        r = rhs.r;
    3d2e:	f06f 0619 	mvn.w	r6, #25
    3d32:	7016      	strb	r6, [r2, #0]
        b = rhs.b;
    3d34:	f06f 0669 	mvn.w	r6, #105	; 0x69
        g = rhs.g;
    3d38:	f882 a001 	strb.w	sl, [r2, #1]
        b = rhs.b;
    3d3c:	7096      	strb	r6, [r2, #2]
    3d3e:	e778      	b.n	3c32 <_Z10led_updatev+0x102>
            leds(next_step) = CRGB::Black;
    3d40:	f851 702b 	ldr.w	r7, [r1, fp, lsl #2]
    3d44:	eb07 0747 	add.w	r7, r7, r7, lsl #1
    3d48:	19d6      	adds	r6, r2, r7
        r = (colorcode >> 16) & 0xFF;
    3d4a:	f802 9007 	strb.w	r9, [r2, r7]
        g = (colorcode >>  8) & 0xFF;
    3d4e:	f886 9001 	strb.w	r9, [r6, #1]
        b = (colorcode >>  0) & 0xFF;
    3d52:	f886 9002 	strb.w	r9, [r6, #2]
    3d56:	e7d8      	b.n	3d0a <_Z10led_updatev+0x1da>
          leds(next_step) = LED_WHITE;
    3d58:	f851 702b 	ldr.w	r7, [r1, fp, lsl #2]
    r = (r == 0) ? 0 : (((int)r * (int)(scale) ) >> 8) + nonzeroscale;
    3d5c:	9e01      	ldr	r6, [sp, #4]
    3d5e:	f882 9002 	strb.w	r9, [r2, #2]
    3d62:	eb07 0747 	add.w	r7, r7, r7, lsl #1
    3d66:	eb02 0e07 	add.w	lr, r2, r7
        g = (colorcode >>  8) & 0xFF;
    3d6a:	f882 9001 	strb.w	r9, [r2, #1]
        r = (colorcode >> 16) & 0xFF;
    3d6e:	f882 9000 	strb.w	r9, [r2]
    g = (g == 0) ? 0 : (((int)g * (int)(scale) ) >> 8) + nonzeroscale;
    3d72:	f8dd c008 	ldr.w	ip, [sp, #8]
    r = (r == 0) ? 0 : (((int)r * (int)(scale) ) >> 8) + nonzeroscale;
    3d76:	55d6      	strb	r6, [r2, r7]
    b = (b == 0) ? 0 : (((int)b * (int)(scale) ) >> 8) + nonzeroscale;
    3d78:	9e03      	ldr	r6, [sp, #12]
    g = (g == 0) ? 0 : (((int)g * (int)(scale) ) >> 8) + nonzeroscale;
    3d7a:	f88e c001 	strb.w	ip, [lr, #1]
    b = (b == 0) ? 0 : (((int)b * (int)(scale) ) >> 8) + nonzeroscale;
    3d7e:	f88e 6002 	strb.w	r6, [lr, #2]
    3d82:	e756      	b.n	3c32 <_Z10led_updatev+0x102>
    3d84:	f3af 8000 	nop.w
    3d88:	00000000 	.word	0x00000000
    3d8c:	406fe000 	.word	0x406fe000
    3d90:	200023d0 	.word	0x200023d0
    3d94:	20001d44 	.word	0x20001d44
    3d98:	200018cc 	.word	0x200018cc
    3d9c:	20002369 	.word	0x20002369
    3da0:	20000cb4 	.word	0x20000cb4
    3da4:	200018e0 	.word	0x200018e0
    3da8:	000118a0 	.word	0x000118a0
    3dac:	20000c98 	.word	0x20000c98
    3db0:	200027bc 	.word	0x200027bc
    3db4:	20001a28 	.word	0x20001a28
    3db8:	46fffe00 	.word	0x46fffe00
    3dbc:	aaaaaaab 	.word	0xaaaaaaab
    3dc0:	2000196c 	.word	0x2000196c
    3dc4:	f3af 8000 	nop.w

00003dc8 <_Z9drum_initv>:
  slider2.b.setThreshold(30);
  slider2.setHandleTouchEvent(hatEvent);
}


void drum_init() {
    3dc8:	b5f8      	push	{r3, r4, r5, r6, r7, lr}
  // HI-HAT ->
  hat_envelope1.attack(2.0);
    3dca:	4825      	ldr	r0, [pc, #148]	; (3e60 <_Z9drum_initv+0x98>)
    env_decrement = (0x7fff0000/len_samples);
    3dcc:	4c25      	ldr	r4, [pc, #148]	; (3e64 <_Z9drum_initv+0x9c>)
			* 2147483647.0;
    3dce:	4f26      	ldr	r7, [pc, #152]	; (3e68 <_Z9drum_initv+0xa0>)
			* 2147483647.0;
    3dd0:	4e26      	ldr	r6, [pc, #152]	; (3e6c <_Z9drum_initv+0xa4>)
			* 2147483647.0;
    3dd2:	4d27      	ldr	r5, [pc, #156]	; (3e70 <_Z9drum_initv+0xa8>)
    3dd4:	2102      	movs	r1, #2
    3dd6:	f7fe fbcf 	bl	2578 <_ZN25AudioEffectCustomEnvelope6attackEi>
  hat_envelope1.release(0.0);
    3dda:	4821      	ldr	r0, [pc, #132]	; (3e60 <_Z9drum_initv+0x98>)
    3ddc:	2100      	movs	r1, #0
    3dde:	f7fe fbe3 	bl	25a8 <_ZN25AudioEffectCustomEnvelope7releaseEi>
  hat_envelope1.sustain(0.0);
    3de2:	481f      	ldr	r0, [pc, #124]	; (3e60 <_Z9drum_initv+0x98>)
    3de4:	2100      	movs	r1, #0
    3de6:	f7fe fbcf 	bl	2588 <_ZN25AudioEffectCustomEnvelope7sustainEf>
			* 2147483647.0;
    3dea:	4a22      	ldr	r2, [pc, #136]	; (3e74 <_Z9drum_initv+0xac>)
    3dec:	4b22      	ldr	r3, [pc, #136]	; (3e78 <_Z9drum_initv+0xb0>)
    3dee:	4823      	ldr	r0, [pc, #140]	; (3e7c <_Z9drum_initv+0xb4>)
    3df0:	f8df e0a0 	ldr.w	lr, [pc, #160]	; 3e94 <_Z9drum_initv+0xcc>
    3df4:	6220      	str	r0, [r4, #32]
    3df6:	f8c2 e018 	str.w	lr, [r2, #24]
			* 2147483647.0;
    3dfa:	61d7      	str	r7, [r2, #28]
			* 2147483647.0;
    3dfc:	619e      	str	r6, [r3, #24]
			* 2147483647.0;
    3dfe:	61dd      	str	r5, [r3, #28]
  hat_filter_bp.frequency(4000);
  hat_filter_hp.frequency(6000);
  hat_snappy.length(30);
  hat_snappy.pitchMod(4.0);
    3e00:	f04f 4181 	mov.w	r1, #1082130432	; 0x40800000
    3e04:	4620      	mov	r0, r4
    3e06:	f006 ffdd 	bl	adc4 <_ZN20AudioSynthSimpleDrum8pitchModEf>
  hat_snappy.frequency(126);

  // KICK DRUM ->
  kick_drum1.length(kick_duration);
    3e0a:	4b1d      	ldr	r3, [pc, #116]	; (3e80 <_Z9drum_initv+0xb8>)
    wav_increment = (freq * (0x7fffffffLL/AUDIO_SAMPLE_RATE_EXACT)) + 0.5;
    3e0c:	4a1d      	ldr	r2, [pc, #116]	; (3e84 <_Z9drum_initv+0xbc>)
    3e0e:	681b      	ldr	r3, [r3, #0]
    3e10:	6322      	str	r2, [r4, #48]	; 0x30
    if(milliseconds < 0)
    3e12:	2b00      	cmp	r3, #0
    3e14:	db1b      	blt.n	3e4e <_Z9drum_initv+0x86>
    3e16:	f241 3088 	movw	r0, #5000	; 0x1388
    int32_t len_samples = milliseconds*(AUDIO_SAMPLE_RATE_EXACT/1000.0);
    3e1a:	4283      	cmp	r3, r0
    3e1c:	bfb8      	it	lt
    3e1e:	4618      	movlt	r0, r3
    3e20:	f008 fcd6 	bl	c7d0 <__aeabi_i2d>
    3e24:	a30c      	add	r3, pc, #48	; (adr r3, 3e58 <_Z9drum_initv+0x90>)
    3e26:	e9d3 2300 	ldrd	r2, r3, [r3]
    3e2a:	f008 fd37 	bl	c89c <__aeabi_dmul>
    3e2e:	f008 ffcf 	bl	cdd0 <__aeabi_d2iz>
    env_decrement = (0x7fff0000/len_samples);
    3e32:	4a15      	ldr	r2, [pc, #84]	; (3e88 <_Z9drum_initv+0xc0>)
    3e34:	4b15      	ldr	r3, [pc, #84]	; (3e8c <_Z9drum_initv+0xc4>)
    3e36:	fb92 f0f0 	sdiv	r0, r2, r0
    3e3a:	6218      	str	r0, [r3, #32]
    wav_increment = (freq * (0x7fffffffLL/AUDIO_SAMPLE_RATE_EXACT)) + 0.5;
    3e3c:	4a14      	ldr	r2, [pc, #80]	; (3e90 <_Z9drum_initv+0xc8>)
    3e3e:	631a      	str	r2, [r3, #48]	; 0x30
  kick_drum1.frequency(60);
  kick_drum1.pitchMod(4.0);
    3e40:	4812      	ldr	r0, [pc, #72]	; (3e8c <_Z9drum_initv+0xc4>)
    3e42:	f04f 4181 	mov.w	r1, #1082130432	; 0x40800000
}
    3e46:	e8bd 40f8 	ldmia.w	sp!, {r3, r4, r5, r6, r7, lr}
  kick_drum1.pitchMod(4.0);
    3e4a:	f006 bfbb 	b.w	adc4 <_ZN20AudioSynthSimpleDrum8pitchModEf>
    3e4e:	4b0f      	ldr	r3, [pc, #60]	; (3e8c <_Z9drum_initv+0xc4>)
    3e50:	e7f4      	b.n	3e3c <_Z9drum_initv+0x74>
    3e52:	bf00      	nop
    3e54:	f3af 8000 	nop.w
    3e58:	0f1195d5 	.word	0x0f1195d5
    3e5c:	40460f0f 	.word	0x40460f0f
    3e60:	20001bcc 	.word	0x20001bcc
    3e64:	20001b58 	.word	0x20001b58
    3e68:	122b055f 	.word	0x122b055f
    3e6c:	1b582c11 	.word	0x1b582c11
    3e70:	1b230c9f 	.word	0x1b230c9f
    3e74:	200023d4 	.word	0x200023d4
    3e78:	20001cec 	.word	0x20001cec
    3e7c:	0018c466 	.word	0x0018c466
    3e80:	20000cbc 	.word	0x20000cbc
    3e84:	005d95dd 	.word	0x005d95dd
    3e88:	7fff0000 	.word	0x7fff0000
    3e8c:	20002398 	.word	0x20002398
    3e90:	002c9082 	.word	0x002c9082
    3e94:	123ac80b 	.word	0x123ac80b

00003e98 <_Z9drum_readv>:

void drum_read() {
    3e98:	e92d 41f0 	stmdb	sp!, {r4, r5, r6, r7, r8, lr}
	volatile uint32_t ret = systick_millis_count; // single aligned 32 bit is atomic
    3e9c:	4db8      	ldr	r5, [pc, #736]	; (4180 <_Z9drum_readv+0x2e8>)
  inline void setHandleTouchEvent(void (*fptr)(uint8_t event, int value)) {
    tTouchCallback  = fptr;
  }
  bool touchDetected;
  void update(unsigned long sysTick){
    a.update();
    3e9e:	4cb9      	ldr	r4, [pc, #740]	; (4184 <_Z9drum_readv+0x2ec>)
    3ea0:	682b      	ldr	r3, [r5, #0]
      return touchRead(pin);
    3ea2:	7820      	ldrb	r0, [r4, #0]
    3ea4:	b084      	sub	sp, #16
    3ea6:	9300      	str	r3, [sp, #0]
	return ret;
    3ea8:	9e00      	ldr	r6, [sp, #0]
    3eaa:	f004 fb4f 	bl	854c <touchRead>
      _signal = TSIRead(pin);
    3eae:	f8a4 0054 	strh.w	r0, [r4, #84]	; 0x54
      return touchRead(pin);
    3eb2:	f894 0058 	ldrb.w	r0, [r4, #88]	; 0x58
    3eb6:	f004 fb49 	bl	854c <touchRead>
    b.update();
    
    if(sysTick > lastUpdate + 100) {
    3eba:	f8d4 30c4 	ldr.w	r3, [r4, #196]	; 0xc4
    3ebe:	3364      	adds	r3, #100	; 0x64
      _signal = TSIRead(pin);
    3ec0:	b280      	uxth	r0, r0
    if(sysTick > lastUpdate + 100) {
    3ec2:	429e      	cmp	r6, r3
      _signal = TSIRead(pin);
    3ec4:	f8a4 00ac 	strh.w	r0, [r4, #172]	; 0xac
    if(sysTick > lastUpdate + 100) {
    3ec8:	f200 80f5 	bhi.w	40b6 <_Z9drum_readv+0x21e>
    3ecc:	6e22      	ldr	r2, [r4, #96]	; 0x60
        return _signal;
    3ece:	b200      	sxth	r0, r0
    }
  
    int32_t da = a.getDelta();
    int32_t db = b.getDelta();

    numTouches <<= 1;
    3ed0:	f8d4 30b8 	ldr.w	r3, [r4, #184]	; 0xb8
        return _signal;
    3ed4:	f9b4 e054 	ldrsh.w	lr, [r4, #84]	; 0x54
      int32_t delta = getSignal() - getBaseline();
    3ed8:	68a7      	ldr	r7, [r4, #8]
    int32_t getDelta() {
    3eda:	49aa      	ldr	r1, [pc, #680]	; (4184 <_Z9drum_readv+0x2ec>)
      int32_t delta = getSignal() - getBaseline();
    3edc:	1a82      	subs	r2, r0, r2
      if(_cnt < NUM_SAMPLES) {
    3ede:	6860      	ldr	r0, [r4, #4]
    numTouches <<= 1;
    3ee0:	005b      	lsls	r3, r3, #1
      if(_cnt < NUM_SAMPLES) {
    3ee2:	280f      	cmp	r0, #15
    numTouches <<= 1;
    3ee4:	f8c4 30b8 	str.w	r3, [r4, #184]	; 0xb8
      int32_t delta = getSignal() - getBaseline();
    3ee8:	ebc7 0e0e 	rsb	lr, r7, lr
      if(_cnt < NUM_SAMPLES) {
    3eec:	f340 8083 	ble.w	3ff6 <_Z9drum_readv+0x15e>
    
    if(a.touchDetected() || b.touchDetected()) {
    3ef0:	6d09      	ldr	r1, [r1, #80]	; 0x50
    3ef2:	458e      	cmp	lr, r1
    3ef4:	dd7f      	ble.n	3ff6 <_Z9drum_readv+0x15e>
      numTouches |= 1UL;
    3ef6:	f043 0301 	orr.w	r3, r3, #1
    3efa:	f8c4 30b8 	str.w	r3, [r4, #184]	; 0xb8
      numTouches &= ~1UL;
    }

    uint16_t bottomBits = numTouches & B1111;

    if(!touchDetected && bottomBits == B1111) {
    3efe:	f894 10b0 	ldrb.w	r1, [r4, #176]	; 0xb0
    3f02:	4fa0      	ldr	r7, [pc, #640]	; (4184 <_Z9drum_readv+0x2ec>)
    uint16_t bottomBits = numTouches & B1111;
    3f04:	f003 030f 	and.w	r3, r3, #15
    if(!touchDetected && bottomBits == B1111) {
    3f08:	2900      	cmp	r1, #0
    3f0a:	d16f      	bne.n	3fec <_Z9drum_readv+0x154>
    3f0c:	2b0f      	cmp	r3, #15
    3f0e:	f000 8159 	beq.w	41c4 <_Z9drum_readv+0x32c>
    a.update();
    3f12:	4c9d      	ldr	r4, [pc, #628]	; (4188 <_Z9drum_readv+0x2f0>)
	volatile uint32_t ret = systick_millis_count; // single aligned 32 bit is atomic
    3f14:	682b      	ldr	r3, [r5, #0]
    3f16:	9301      	str	r3, [sp, #4]
      return touchRead(pin);
    3f18:	7820      	ldrb	r0, [r4, #0]
	return ret;
    3f1a:	9e01      	ldr	r6, [sp, #4]
    3f1c:	f004 fb16 	bl	854c <touchRead>
      _signal = TSIRead(pin);
    3f20:	f8a4 0054 	strh.w	r0, [r4, #84]	; 0x54
      return touchRead(pin);
    3f24:	f894 0058 	ldrb.w	r0, [r4, #88]	; 0x58
    3f28:	f004 fb10 	bl	854c <touchRead>
    if(sysTick > lastUpdate + 100) {
    3f2c:	f8d4 30c4 	ldr.w	r3, [r4, #196]	; 0xc4
    3f30:	3364      	adds	r3, #100	; 0x64
      _signal = TSIRead(pin);
    3f32:	b280      	uxth	r0, r0
    if(sysTick > lastUpdate + 100) {
    3f34:	429e      	cmp	r6, r3
      _signal = TSIRead(pin);
    3f36:	f8a4 00ac 	strh.w	r0, [r4, #172]	; 0xac
    if(sysTick > lastUpdate + 100) {
    3f3a:	d867      	bhi.n	400c <_Z9drum_readv+0x174>
    3f3c:	6e22      	ldr	r2, [r4, #96]	; 0x60
        return _signal;
    3f3e:	b200      	sxth	r0, r0
    numTouches <<= 1;
    3f40:	f8d4 30b8 	ldr.w	r3, [r4, #184]	; 0xb8
        return _signal;
    3f44:	f9b4 c054 	ldrsh.w	ip, [r4, #84]	; 0x54
      int32_t delta = getSignal() - getBaseline();
    3f48:	68a7      	ldr	r7, [r4, #8]
    int32_t getDelta() {
    3f4a:	498f      	ldr	r1, [pc, #572]	; (4188 <_Z9drum_readv+0x2f0>)
      int32_t delta = getSignal() - getBaseline();
    3f4c:	1a82      	subs	r2, r0, r2
      if(_cnt < NUM_SAMPLES) {
    3f4e:	6860      	ldr	r0, [r4, #4]
    numTouches <<= 1;
    3f50:	005b      	lsls	r3, r3, #1
      if(_cnt < NUM_SAMPLES) {
    3f52:	280f      	cmp	r0, #15
    numTouches <<= 1;
    3f54:	f8c4 30b8 	str.w	r3, [r4, #184]	; 0xb8
      int32_t delta = getSignal() - getBaseline();
    3f58:	ebc7 0c0c 	rsb	ip, r7, ip
      if(_cnt < NUM_SAMPLES) {
    3f5c:	dd3d      	ble.n	3fda <_Z9drum_readv+0x142>
    if(a.touchDetected() || b.touchDetected()) {
    3f5e:	6d09      	ldr	r1, [r1, #80]	; 0x50
    3f60:	458c      	cmp	ip, r1
    3f62:	dd3a      	ble.n	3fda <_Z9drum_readv+0x142>
      numTouches |= 1UL;
    3f64:	f043 0301 	orr.w	r3, r3, #1
    3f68:	f8c4 30b8 	str.w	r3, [r4, #184]	; 0xb8
    if(!touchDetected && bottomBits == B1111) {
    3f6c:	f894 10b0 	ldrb.w	r1, [r4, #176]	; 0xb0
    3f70:	4f85      	ldr	r7, [pc, #532]	; (4188 <_Z9drum_readv+0x2f0>)
    uint16_t bottomBits = numTouches & B1111;
    3f72:	f003 030f 	and.w	r3, r3, #15
    if(!touchDetected && bottomBits == B1111) {
    3f76:	2900      	cmp	r1, #0
    3f78:	d12a      	bne.n	3fd0 <_Z9drum_readv+0x138>
    3f7a:	2b0f      	cmp	r3, #15
    3f7c:	f000 8130 	beq.w	41e0 <_Z9drum_readv+0x348>
  kickSlider.update(millis());
  slider2.update(millis());
  
  if(millis() > kick_on_time + kick_duration) {
    3f80:	4982      	ldr	r1, [pc, #520]	; (418c <_Z9drum_readv+0x2f4>)
    3f82:	4a83      	ldr	r2, [pc, #524]	; (4190 <_Z9drum_readv+0x2f8>)
	volatile uint32_t ret = systick_millis_count; // single aligned 32 bit is atomic
    3f84:	682b      	ldr	r3, [r5, #0]
    3f86:	6809      	ldr	r1, [r1, #0]
    3f88:	6812      	ldr	r2, [r2, #0]
    3f8a:	9302      	str	r3, [sp, #8]
	return ret;
    3f8c:	9b02      	ldr	r3, [sp, #8]
    3f8e:	440a      	add	r2, r1
    3f90:	429a      	cmp	r2, r3
    3f92:	d202      	bcs.n	3f9a <_Z9drum_readv+0x102>
  kick_playing = 1;
  kick_on_time = millis();
}

void kick_noteoff() {
  kick_playing = 0;
    3f94:	4b7f      	ldr	r3, [pc, #508]	; (4194 <_Z9drum_readv+0x2fc>)
    3f96:	2200      	movs	r2, #0
    3f98:	701a      	strb	r2, [r3, #0]
  if(millis() > hat_on_time + hat_duration) {
    3f9a:	4a7f      	ldr	r2, [pc, #508]	; (4198 <_Z9drum_readv+0x300>)
    3f9c:	4b7f      	ldr	r3, [pc, #508]	; (419c <_Z9drum_readv+0x304>)
	volatile uint32_t ret = systick_millis_count; // single aligned 32 bit is atomic
    3f9e:	6829      	ldr	r1, [r5, #0]
    3fa0:	9103      	str	r1, [sp, #12]
    3fa2:	6811      	ldr	r1, [r2, #0]
    3fa4:	681a      	ldr	r2, [r3, #0]
	return ret;
    3fa6:	9b03      	ldr	r3, [sp, #12]
    3fa8:	440a      	add	r2, r1
    3faa:	429a      	cmp	r2, r3
    3fac:	d20d      	bcs.n	3fca <_Z9drum_readv+0x132>
 hat_playing = 1;
 hat_on_time = millis();
}

void hat_noteoff() {
  hat_envelope1.noteOff();
    3fae:	487c      	ldr	r0, [pc, #496]	; (41a0 <_Z9drum_readv+0x308>)
  AudioNoInterrupts();
    3fb0:	4d7c      	ldr	r5, [pc, #496]	; (41a4 <_Z9drum_readv+0x30c>)
		seed = 1 + instance_count++;
	}
	void amplitude(float n) {
		if (n < 0.0) n = 0.0;
		else if (n > 1.0) n = 1.0;
		level = (int32_t)(n * 65536.0);
    3fb2:	4c7d      	ldr	r4, [pc, #500]	; (41a8 <_Z9drum_readv+0x310>)
  hat_envelope1.noteOff();
    3fb4:	f7fe fb02 	bl	25bc <_ZN25AudioEffectCustomEnvelope7noteOffEv>
  hat_noise1.amplitude(0.0);
  AudioInterrupts();
    3fb8:	487c      	ldr	r0, [pc, #496]	; (41ac <_Z9drum_readv+0x314>)
  hat_playing = 0;
    3fba:	497d      	ldr	r1, [pc, #500]	; (41b0 <_Z9drum_readv+0x318>)
  AudioNoInterrupts();
    3fbc:	f04f 4280 	mov.w	r2, #1073741824	; 0x40000000
    3fc0:	2300      	movs	r3, #0
    3fc2:	602a      	str	r2, [r5, #0]
    3fc4:	61a3      	str	r3, [r4, #24]
  AudioInterrupts();
    3fc6:	6002      	str	r2, [r0, #0]
  hat_playing = 0;
    3fc8:	700b      	strb	r3, [r1, #0]
}
    3fca:	b004      	add	sp, #16
    3fcc:	e8bd 81f0 	ldmia.w	sp!, {r4, r5, r6, r7, r8, pc}
        tTouchCallback(1, _sliderValue);
      }
      _lastTouch = sysTick;
    }
    
    if(touchDetected && bottomBits == 0) {
    3fd0:	2b00      	cmp	r3, #0
    3fd2:	d1d5      	bne.n	3f80 <_Z9drum_readv+0xe8>
      touchDetected = 0;
    3fd4:	f887 30b0 	strb.w	r3, [r7, #176]	; 0xb0
    3fd8:	e7d2      	b.n	3f80 <_Z9drum_readv+0xe8>
      if(_cnt < NUM_SAMPLES) {
    3fda:	6de1      	ldr	r1, [r4, #92]	; 0x5c
    3fdc:	486a      	ldr	r0, [pc, #424]	; (4188 <_Z9drum_readv+0x2f0>)
    3fde:	290f      	cmp	r1, #15
    3fe0:	ddc4      	ble.n	3f6c <_Z9drum_readv+0xd4>
    if(a.touchDetected() || b.touchDetected()) {
    3fe2:	f8d0 10a8 	ldr.w	r1, [r0, #168]	; 0xa8
    3fe6:	428a      	cmp	r2, r1
    3fe8:	dcbc      	bgt.n	3f64 <_Z9drum_readv+0xcc>
    3fea:	e7bf      	b.n	3f6c <_Z9drum_readv+0xd4>
    if(touchDetected && bottomBits == 0) {
    3fec:	2b00      	cmp	r3, #0
    3fee:	d190      	bne.n	3f12 <_Z9drum_readv+0x7a>
      touchDetected = 0;
    3ff0:	f887 30b0 	strb.w	r3, [r7, #176]	; 0xb0
    3ff4:	e78d      	b.n	3f12 <_Z9drum_readv+0x7a>
      if(_cnt < NUM_SAMPLES) {
    3ff6:	6de1      	ldr	r1, [r4, #92]	; 0x5c
    3ff8:	4862      	ldr	r0, [pc, #392]	; (4184 <_Z9drum_readv+0x2ec>)
    3ffa:	290f      	cmp	r1, #15
    3ffc:	f77f af7f 	ble.w	3efe <_Z9drum_readv+0x66>
    if(a.touchDetected() || b.touchDetected()) {
    4000:	f8d0 10a8 	ldr.w	r1, [r0, #168]	; 0xa8
    4004:	428a      	cmp	r2, r1
    4006:	f73f af76 	bgt.w	3ef6 <_Z9drum_readv+0x5e>
    400a:	e778      	b.n	3efe <_Z9drum_readv+0x66>
        if(_baselineIndex >= NUM_SAMPLES) { _baselineIndex = 0; }
    400c:	f8d4 804c 	ldr.w	r8, [r4, #76]	; 0x4c
      lastUpdate = sysTick;
    4010:	f8c4 60c4 	str.w	r6, [r4, #196]	; 0xc4
        if(_baselineIndex >= NUM_SAMPLES) { _baselineIndex = 0; }
    4014:	f1b8 0f0f 	cmp.w	r8, #15
    4018:	f300 80ad 	bgt.w	4176 <_Z9drum_readv+0x2de>
        if(_cnt < NUM_SAMPLES) { _cnt++; }
    401c:	6863      	ldr	r3, [r4, #4]
    401e:	4a5a      	ldr	r2, [pc, #360]	; (4188 <_Z9drum_readv+0x2f0>)
      return touchRead(pin);
    4020:	7820      	ldrb	r0, [r4, #0]
        if(_cnt < NUM_SAMPLES) { _cnt++; }
    4022:	2b0f      	cmp	r3, #15
    4024:	bfdc      	itt	le
    4026:	3301      	addle	r3, #1
    4028:	6053      	strle	r3, [r2, #4]
      return touchRead(pin);
    402a:	f004 fa8f 	bl	854c <touchRead>
        _baselineIndex++;
    402e:	6ce3      	ldr	r3, [r4, #76]	; 0x4c
        for(int i = 0; i < _cnt; i++) {
    4030:	6867      	ldr	r7, [r4, #4]
        _baselineValues[_baselineIndex] = TSIRead(pin);
    4032:	eb04 0888 	add.w	r8, r4, r8, lsl #2
        _baselineIndex++;
    4036:	3301      	adds	r3, #1
        for(int i = 0; i < _cnt; i++) {
    4038:	2f00      	cmp	r7, #0
        _baselineValues[_baselineIndex] = TSIRead(pin);
    403a:	f8c8 000c 	str.w	r0, [r8, #12]
        _baselineIndex++;
    403e:	64e3      	str	r3, [r4, #76]	; 0x4c
        for(int i = 0; i < _cnt; i++) {
    4040:	f340 80dc 	ble.w	41fc <_Z9drum_readv+0x364>
    4044:	4b5b      	ldr	r3, [pc, #364]	; (41b4 <_Z9drum_readv+0x31c>)
        int sum = 0;
    4046:	2200      	movs	r2, #0
    4048:	eb03 0087 	add.w	r0, r3, r7, lsl #2
          sum += _baselineValues[i];
    404c:	f853 1f04 	ldr.w	r1, [r3, #4]!
        for(int i = 0; i < _cnt; i++) {
    4050:	4283      	cmp	r3, r0
          sum += _baselineValues[i];
    4052:	440a      	add	r2, r1
        for(int i = 0; i < _cnt; i++) {
    4054:	d1fa      	bne.n	404c <_Z9drum_readv+0x1b4>
        if(_baselineIndex >= NUM_SAMPLES) { _baselineIndex = 0; }
    4056:	f8d4 80a4 	ldr.w	r8, [r4, #164]	; 0xa4
        _baseline = sum / _cnt;
    405a:	494b      	ldr	r1, [pc, #300]	; (4188 <_Z9drum_readv+0x2f0>)
    405c:	fb92 f2f7 	sdiv	r2, r2, r7
        if(_baselineIndex >= NUM_SAMPLES) { _baselineIndex = 0; }
    4060:	f1b8 0f0f 	cmp.w	r8, #15
        _baseline = sum / _cnt;
    4064:	60a2      	str	r2, [r4, #8]
        if(_baselineIndex >= NUM_SAMPLES) { _baselineIndex = 0; }
    4066:	f300 8081 	bgt.w	416c <_Z9drum_readv+0x2d4>
        if(_cnt < NUM_SAMPLES) { _cnt++; }
    406a:	6de3      	ldr	r3, [r4, #92]	; 0x5c
    406c:	4a46      	ldr	r2, [pc, #280]	; (4188 <_Z9drum_readv+0x2f0>)
      return touchRead(pin);
    406e:	f894 0058 	ldrb.w	r0, [r4, #88]	; 0x58
        if(_cnt < NUM_SAMPLES) { _cnt++; }
    4072:	2b0f      	cmp	r3, #15
    4074:	bfdc      	itt	le
    4076:	3301      	addle	r3, #1
    4078:	65d3      	strle	r3, [r2, #92]	; 0x5c
      return touchRead(pin);
    407a:	f004 fa67 	bl	854c <touchRead>
        _baselineIndex++;
    407e:	f8d4 30a4 	ldr.w	r3, [r4, #164]	; 0xa4
        for(int i = 0; i < _cnt; i++) {
    4082:	6de7      	ldr	r7, [r4, #92]	; 0x5c
        _baselineValues[_baselineIndex] = TSIRead(pin);
    4084:	eb04 0888 	add.w	r8, r4, r8, lsl #2
        _baselineIndex++;
    4088:	3301      	adds	r3, #1
        for(int i = 0; i < _cnt; i++) {
    408a:	2f00      	cmp	r7, #0
        _baselineValues[_baselineIndex] = TSIRead(pin);
    408c:	f8c8 0064 	str.w	r0, [r8, #100]	; 0x64
        _baselineIndex++;
    4090:	f8c4 30a4 	str.w	r3, [r4, #164]	; 0xa4
        for(int i = 0; i < _cnt; i++) {
    4094:	f340 80b4 	ble.w	4200 <_Z9drum_readv+0x368>
    4098:	4b47      	ldr	r3, [pc, #284]	; (41b8 <_Z9drum_readv+0x320>)
        int sum = 0;
    409a:	2200      	movs	r2, #0
    409c:	eb03 0087 	add.w	r0, r3, r7, lsl #2
          sum += _baselineValues[i];
    40a0:	f853 1f04 	ldr.w	r1, [r3, #4]!
        for(int i = 0; i < _cnt; i++) {
    40a4:	4283      	cmp	r3, r0
          sum += _baselineValues[i];
    40a6:	440a      	add	r2, r1
        for(int i = 0; i < _cnt; i++) {
    40a8:	d1fa      	bne.n	40a0 <_Z9drum_readv+0x208>
        _baseline = sum / _cnt;
    40aa:	fb92 f2f7 	sdiv	r2, r2, r7
    40ae:	f8b4 00ac 	ldrh.w	r0, [r4, #172]	; 0xac
    40b2:	6622      	str	r2, [r4, #96]	; 0x60
    40b4:	e743      	b.n	3f3e <_Z9drum_readv+0xa6>
        if(_baselineIndex >= NUM_SAMPLES) { _baselineIndex = 0; }
    40b6:	f8d4 804c 	ldr.w	r8, [r4, #76]	; 0x4c
      lastUpdate = sysTick;
    40ba:	f8c4 60c4 	str.w	r6, [r4, #196]	; 0xc4
        if(_baselineIndex >= NUM_SAMPLES) { _baselineIndex = 0; }
    40be:	f1b8 0f0f 	cmp.w	r8, #15
    40c2:	dc4f      	bgt.n	4164 <_Z9drum_readv+0x2cc>
        if(_cnt < NUM_SAMPLES) { _cnt++; }
    40c4:	6863      	ldr	r3, [r4, #4]
    40c6:	4a2f      	ldr	r2, [pc, #188]	; (4184 <_Z9drum_readv+0x2ec>)
      return touchRead(pin);
    40c8:	7820      	ldrb	r0, [r4, #0]
        if(_cnt < NUM_SAMPLES) { _cnt++; }
    40ca:	2b0f      	cmp	r3, #15
    40cc:	bfdc      	itt	le
    40ce:	3301      	addle	r3, #1
    40d0:	6053      	strle	r3, [r2, #4]
      return touchRead(pin);
    40d2:	f004 fa3b 	bl	854c <touchRead>
        _baselineIndex++;
    40d6:	6ce3      	ldr	r3, [r4, #76]	; 0x4c
        for(int i = 0; i < _cnt; i++) {
    40d8:	6867      	ldr	r7, [r4, #4]
        _baselineValues[_baselineIndex] = TSIRead(pin);
    40da:	eb04 0888 	add.w	r8, r4, r8, lsl #2
        _baselineIndex++;
    40de:	3301      	adds	r3, #1
        for(int i = 0; i < _cnt; i++) {
    40e0:	2f00      	cmp	r7, #0
        _baselineValues[_baselineIndex] = TSIRead(pin);
    40e2:	f8c8 000c 	str.w	r0, [r8, #12]
        _baselineIndex++;
    40e6:	64e3      	str	r3, [r4, #76]	; 0x4c
        for(int i = 0; i < _cnt; i++) {
    40e8:	f340 808c 	ble.w	4204 <_Z9drum_readv+0x36c>
    40ec:	4b33      	ldr	r3, [pc, #204]	; (41bc <_Z9drum_readv+0x324>)
        int sum = 0;
    40ee:	2200      	movs	r2, #0
    40f0:	eb03 0087 	add.w	r0, r3, r7, lsl #2
          sum += _baselineValues[i];
    40f4:	f853 1f04 	ldr.w	r1, [r3, #4]!
        for(int i = 0; i < _cnt; i++) {
    40f8:	4283      	cmp	r3, r0
          sum += _baselineValues[i];
    40fa:	440a      	add	r2, r1
        for(int i = 0; i < _cnt; i++) {
    40fc:	d1fa      	bne.n	40f4 <_Z9drum_readv+0x25c>
        if(_baselineIndex >= NUM_SAMPLES) { _baselineIndex = 0; }
    40fe:	f8d4 80a4 	ldr.w	r8, [r4, #164]	; 0xa4
        _baseline = sum / _cnt;
    4102:	4920      	ldr	r1, [pc, #128]	; (4184 <_Z9drum_readv+0x2ec>)
    4104:	fb92 f2f7 	sdiv	r2, r2, r7
        if(_baselineIndex >= NUM_SAMPLES) { _baselineIndex = 0; }
    4108:	f1b8 0f0f 	cmp.w	r8, #15
        _baseline = sum / _cnt;
    410c:	60a2      	str	r2, [r4, #8]
        if(_baselineIndex >= NUM_SAMPLES) { _baselineIndex = 0; }
    410e:	dc24      	bgt.n	415a <_Z9drum_readv+0x2c2>
        if(_cnt < NUM_SAMPLES) { _cnt++; }
    4110:	6de3      	ldr	r3, [r4, #92]	; 0x5c
    4112:	4a1c      	ldr	r2, [pc, #112]	; (4184 <_Z9drum_readv+0x2ec>)
      return touchRead(pin);
    4114:	f894 0058 	ldrb.w	r0, [r4, #88]	; 0x58
        if(_cnt < NUM_SAMPLES) { _cnt++; }
    4118:	2b0f      	cmp	r3, #15
    411a:	bfdc      	itt	le
    411c:	3301      	addle	r3, #1
    411e:	65d3      	strle	r3, [r2, #92]	; 0x5c
      return touchRead(pin);
    4120:	f004 fa14 	bl	854c <touchRead>
        _baselineIndex++;
    4124:	f8d4 30a4 	ldr.w	r3, [r4, #164]	; 0xa4
        for(int i = 0; i < _cnt; i++) {
    4128:	6de7      	ldr	r7, [r4, #92]	; 0x5c
        _baselineValues[_baselineIndex] = TSIRead(pin);
    412a:	eb04 0888 	add.w	r8, r4, r8, lsl #2
        _baselineIndex++;
    412e:	3301      	adds	r3, #1
        for(int i = 0; i < _cnt; i++) {
    4130:	2f00      	cmp	r7, #0
        _baselineValues[_baselineIndex] = TSIRead(pin);
    4132:	f8c8 0064 	str.w	r0, [r8, #100]	; 0x64
        _baselineIndex++;
    4136:	f8c4 30a4 	str.w	r3, [r4, #164]	; 0xa4
        for(int i = 0; i < _cnt; i++) {
    413a:	dd65      	ble.n	4208 <_Z9drum_readv+0x370>
    413c:	4b20      	ldr	r3, [pc, #128]	; (41c0 <_Z9drum_readv+0x328>)
        int sum = 0;
    413e:	2200      	movs	r2, #0
    4140:	eb03 0087 	add.w	r0, r3, r7, lsl #2
          sum += _baselineValues[i];
    4144:	f853 1f04 	ldr.w	r1, [r3, #4]!
        for(int i = 0; i < _cnt; i++) {
    4148:	4283      	cmp	r3, r0
          sum += _baselineValues[i];
    414a:	440a      	add	r2, r1
        for(int i = 0; i < _cnt; i++) {
    414c:	d1fa      	bne.n	4144 <_Z9drum_readv+0x2ac>
        _baseline = sum / _cnt;
    414e:	fb92 f2f7 	sdiv	r2, r2, r7
    4152:	f8b4 00ac 	ldrh.w	r0, [r4, #172]	; 0xac
    4156:	6622      	str	r2, [r4, #96]	; 0x60
    4158:	e6b9      	b.n	3ece <_Z9drum_readv+0x36>
        if(_baselineIndex >= NUM_SAMPLES) { _baselineIndex = 0; }
    415a:	2300      	movs	r3, #0
    415c:	f8c1 30a4 	str.w	r3, [r1, #164]	; 0xa4
    4160:	4698      	mov	r8, r3
    4162:	e7d5      	b.n	4110 <_Z9drum_readv+0x278>
    4164:	2300      	movs	r3, #0
    4166:	64e3      	str	r3, [r4, #76]	; 0x4c
    4168:	4698      	mov	r8, r3
    416a:	e7ab      	b.n	40c4 <_Z9drum_readv+0x22c>
    416c:	2300      	movs	r3, #0
    416e:	f8c1 30a4 	str.w	r3, [r1, #164]	; 0xa4
    4172:	4698      	mov	r8, r3
    4174:	e779      	b.n	406a <_Z9drum_readv+0x1d2>
    4176:	2300      	movs	r3, #0
    4178:	64e3      	str	r3, [r4, #76]	; 0x4c
    417a:	4698      	mov	r8, r3
    417c:	e74e      	b.n	401c <_Z9drum_readv+0x184>
    417e:	bf00      	nop
    4180:	20002418 	.word	0x20002418
    4184:	20001768 	.word	0x20001768
    4188:	20001a7c 	.word	0x20001a7c
    418c:	20000cbc 	.word	0x20000cbc
    4190:	20001a24 	.word	0x20001a24
    4194:	20002098 	.word	0x20002098
    4198:	20000c94 	.word	0x20000c94
    419c:	200018c0 	.word	0x200018c0
    41a0:	20001bcc 	.word	0x20001bcc
    41a4:	e000e188 	.word	0xe000e188
    41a8:	20001a04 	.word	0x20001a04
    41ac:	e000e108 	.word	0xe000e108
    41b0:	20002410 	.word	0x20002410
    41b4:	20001a84 	.word	0x20001a84
    41b8:	20001adc 	.word	0x20001adc
    41bc:	20001770 	.word	0x20001770
    41c0:	200017c8 	.word	0x200017c8
      if (tTouchCallback != 0) {
    41c4:	f8d7 30b4 	ldr.w	r3, [r7, #180]	; 0xb4
      _sliderValue = (db - da);
    41c8:	ebce 0102 	rsb	r1, lr, r2
      touchDetected = 1;
    41cc:	2001      	movs	r0, #1
      _sliderValue = (db - da);
    41ce:	f8c7 10bc 	str.w	r1, [r7, #188]	; 0xbc
      touchDetected = 1;
    41d2:	f887 00b0 	strb.w	r0, [r7, #176]	; 0xb0
      if (tTouchCallback != 0) {
    41d6:	b103      	cbz	r3, 41da <_Z9drum_readv+0x342>
        tTouchCallback(1, _sliderValue);
    41d8:	4798      	blx	r3
      _lastTouch = sysTick;
    41da:	f8c4 60c0 	str.w	r6, [r4, #192]	; 0xc0
    41de:	e698      	b.n	3f12 <_Z9drum_readv+0x7a>
      if (tTouchCallback != 0) {
    41e0:	f8d7 30b4 	ldr.w	r3, [r7, #180]	; 0xb4
      _sliderValue = (db - da);
    41e4:	ebcc 0102 	rsb	r1, ip, r2
      touchDetected = 1;
    41e8:	2001      	movs	r0, #1
      _sliderValue = (db - da);
    41ea:	f8c7 10bc 	str.w	r1, [r7, #188]	; 0xbc
      touchDetected = 1;
    41ee:	f887 00b0 	strb.w	r0, [r7, #176]	; 0xb0
      if (tTouchCallback != 0) {
    41f2:	b103      	cbz	r3, 41f6 <_Z9drum_readv+0x35e>
        tTouchCallback(1, _sliderValue);
    41f4:	4798      	blx	r3
      _lastTouch = sysTick;
    41f6:	f8c4 60c0 	str.w	r6, [r4, #192]	; 0xc0
    41fa:	e6c1      	b.n	3f80 <_Z9drum_readv+0xe8>
        int sum = 0;
    41fc:	2200      	movs	r2, #0
    41fe:	e72a      	b.n	4056 <_Z9drum_readv+0x1be>
    4200:	2200      	movs	r2, #0
    4202:	e752      	b.n	40aa <_Z9drum_readv+0x212>
    4204:	2200      	movs	r2, #0
    4206:	e77a      	b.n	40fe <_Z9drum_readv+0x266>
    4208:	2200      	movs	r2, #0
    420a:	e7a0      	b.n	414e <_Z9drum_readv+0x2b6>
    420c:	ffff ffff 			; <UNDEFINED> instruction: 0xffffffff

00004210 <_Z11kick_noteonh>:
void kick_noteon(uint8_t velocity) {
    4210:	b570      	push	{r4, r5, r6, lr}
    4212:	4604      	mov	r4, r0
  kick_duration = 200 - velocity;
    4214:	f1c4 03c8 	rsb	r3, r4, #200	; 0xc8
    4218:	482f      	ldr	r0, [pc, #188]	; (42d8 <_Z11kick_noteonh+0xc8>)
  AudioNoInterrupts();
    421a:	4a30      	ldr	r2, [pc, #192]	; (42dc <_Z11kick_noteonh+0xcc>)
  kick_duration = 200 - velocity;
    421c:	6003      	str	r3, [r0, #0]
  AudioNoInterrupts();
    421e:	f04f 4180 	mov.w	r1, #1073741824	; 0x40000000
    if(milliseconds < 0)
    4222:	2b00      	cmp	r3, #0
void kick_noteon(uint8_t velocity) {
    4224:	b082      	sub	sp, #8
  AudioNoInterrupts();
    4226:	6011      	str	r1, [r2, #0]
    4228:	db45      	blt.n	42b6 <_Z11kick_noteonh+0xa6>
    int32_t len_samples = milliseconds*(AUDIO_SAMPLE_RATE_EXACT/1000.0);
    422a:	4618      	mov	r0, r3
    422c:	f008 fad0 	bl	c7d0 <__aeabi_i2d>
    4230:	a323      	add	r3, pc, #140	; (adr r3, 42c0 <_Z11kick_noteonh+0xb0>)
    4232:	e9d3 2300 	ldrd	r2, r3, [r3]
    4236:	f008 fb31 	bl	c89c <__aeabi_dmul>
    423a:	f008 fdc9 	bl	cdd0 <__aeabi_d2iz>
    env_decrement = (0x7fff0000/len_samples);
    423e:	4b28      	ldr	r3, [pc, #160]	; (42e0 <_Z11kick_noteonh+0xd0>)
    4240:	4e28      	ldr	r6, [pc, #160]	; (42e4 <_Z11kick_noteonh+0xd4>)
    4242:	fb93 f0f0 	sdiv	r0, r3, r0
    4246:	6230      	str	r0, [r6, #32]
  kick_drum1.frequency(velocity/4+50);
    4248:	08a0      	lsrs	r0, r4, #2
    424a:	3032      	adds	r0, #50	; 0x32
    424c:	f008 ff12 	bl	d074 <__aeabi_i2f>
    if(freq < 0.0)
    4250:	2100      	movs	r1, #0
    4252:	4604      	mov	r4, r0
    4254:	f009 f900 	bl	d458 <__aeabi_fcmplt>
    4258:	2800      	cmp	r0, #0
    425a:	d12e      	bne.n	42ba <_Z11kick_noteonh+0xaa>
    else if(freq > (AUDIO_SAMPLE_RATE_EXACT/2))
    425c:	4620      	mov	r0, r4
    425e:	f008 fac9 	bl	c7f4 <__aeabi_f2d>
    4262:	a319      	add	r3, pc, #100	; (adr r3, 42c8 <_Z11kick_noteonh+0xb8>)
    4264:	e9d3 2300 	ldrd	r2, r3, [r3]
    4268:	4604      	mov	r4, r0
    426a:	460d      	mov	r5, r1
    426c:	f008 fda6 	bl	cdbc <__aeabi_dcmpgt>
    4270:	b198      	cbz	r0, 429a <_Z11kick_noteonh+0x8a>
    4272:	481d      	ldr	r0, [pc, #116]	; (42e8 <_Z11kick_noteonh+0xd8>)
  AudioInterrupts();
    4274:	4b1d      	ldr	r3, [pc, #116]	; (42ec <_Z11kick_noteonh+0xdc>)
    wav_increment = (freq * (0x7fffffffLL/AUDIO_SAMPLE_RATE_EXACT)) + 0.5;
    4276:	6330      	str	r0, [r6, #48]	; 0x30
    4278:	f04f 4280 	mov.w	r2, #1073741824	; 0x40000000
    427c:	601a      	str	r2, [r3, #0]
  kick_drum1.noteOn();
    427e:	4819      	ldr	r0, [pc, #100]	; (42e4 <_Z11kick_noteonh+0xd4>)
    4280:	f006 fd96 	bl	adb0 <_ZN20AudioSynthSimpleDrum6noteOnEv>
	volatile uint32_t ret = systick_millis_count; // single aligned 32 bit is atomic
    4284:	4b1a      	ldr	r3, [pc, #104]	; (42f0 <_Z11kick_noteonh+0xe0>)
  kick_on_time = millis();
    4286:	4a1b      	ldr	r2, [pc, #108]	; (42f4 <_Z11kick_noteonh+0xe4>)
    4288:	681b      	ldr	r3, [r3, #0]
    428a:	9301      	str	r3, [sp, #4]
	return ret;
    428c:	9901      	ldr	r1, [sp, #4]
  kick_playing = 1;
    428e:	4b1a      	ldr	r3, [pc, #104]	; (42f8 <_Z11kick_noteonh+0xe8>)
  kick_on_time = millis();
    4290:	6011      	str	r1, [r2, #0]
  kick_playing = 1;
    4292:	2201      	movs	r2, #1
    4294:	701a      	strb	r2, [r3, #0]
}
    4296:	b002      	add	sp, #8
    4298:	bd70      	pop	{r4, r5, r6, pc}
    429a:	a30d      	add	r3, pc, #52	; (adr r3, 42d0 <_Z11kick_noteonh+0xc0>)
    429c:	e9d3 2300 	ldrd	r2, r3, [r3]
    42a0:	4620      	mov	r0, r4
    42a2:	4629      	mov	r1, r5
    42a4:	f008 fafa 	bl	c89c <__aeabi_dmul>
    42a8:	2200      	movs	r2, #0
    42aa:	4b14      	ldr	r3, [pc, #80]	; (42fc <_Z11kick_noteonh+0xec>)
    42ac:	f008 f944 	bl	c538 <__adddf3>
    42b0:	f008 fdb6 	bl	ce20 <__aeabi_d2uiz>
    42b4:	e7de      	b.n	4274 <_Z11kick_noteonh+0x64>
    42b6:	4e0b      	ldr	r6, [pc, #44]	; (42e4 <_Z11kick_noteonh+0xd4>)
    42b8:	e7c6      	b.n	4248 <_Z11kick_noteonh+0x38>
    if(freq < 0.0)
    42ba:	2000      	movs	r0, #0
    42bc:	e7da      	b.n	4274 <_Z11kick_noteonh+0x64>
    42be:	bf00      	nop
    42c0:	0f1195d5 	.word	0x0f1195d5
    42c4:	40460f0f 	.word	0x40460f0f
    42c8:	b4b72c52 	.word	0xb4b72c52
    42cc:	40d58ab4 	.word	0x40d58ab4
    42d0:	78cf793f 	.word	0x78cf793f
    42d4:	40e7c489 	.word	0x40e7c489
    42d8:	20000cbc 	.word	0x20000cbc
    42dc:	e000e188 	.word	0xe000e188
    42e0:	7fff0000 	.word	0x7fff0000
    42e4:	20002398 	.word	0x20002398
    42e8:	40000021 	.word	0x40000021
    42ec:	e000e108 	.word	0xe000e108
    42f0:	20002418 	.word	0x20002418
    42f4:	20001a24 	.word	0x20001a24
    42f8:	20002098 	.word	0x20002098
    42fc:	3fe00000 	.word	0x3fe00000

00004300 <_Z9kickEventhi>:
  switch(event) {
    4300:	2801      	cmp	r0, #1
    4302:	d006      	beq.n	4312 <_Z9kickEventhi+0x12>
    4304:	2802      	cmp	r0, #2
    4306:	d103      	bne.n	4310 <_Z9kickEventhi+0x10>
  kick_playing = 0;
    4308:	4b05      	ldr	r3, [pc, #20]	; (4320 <_Z9kickEventhi+0x20>)
    430a:	2200      	movs	r2, #0
    430c:	701a      	strb	r2, [r3, #0]
    430e:	4770      	bx	lr
    4310:	4770      	bx	lr
  int val = constrain(value+63,0,127);
    4312:	313f      	adds	r1, #63	; 0x3f
    4314:	f381 0007 	usat	r0, #7, r1
      kick_noteon(val);
    4318:	b2c0      	uxtb	r0, r0
    431a:	f7ff bf79 	b.w	4210 <_Z11kick_noteonh>
    431e:	bf00      	nop
    4320:	20002098 	.word	0x20002098
    4324:	ffffffff 	.word	0xffffffff

00004328 <_Z10hat_noteonh>:
void hat_noteon(uint8_t velocity) {
    4328:	b5f0      	push	{r4, r5, r6, r7, lr}
 if(velocity > 63) {
    432a:	283f      	cmp	r0, #63	; 0x3f
void hat_noteon(uint8_t velocity) {
    432c:	b085      	sub	sp, #20
    432e:	4606      	mov	r6, r0
 if(velocity > 63) {
    4330:	f200 80a3 	bhi.w	447a <_Z10hat_noteonh+0x152>
 AudioNoInterrupts();
    4334:	4a58      	ldr	r2, [pc, #352]	; (4498 <_Z10hat_noteonh+0x170>)
    4336:	4b59      	ldr	r3, [pc, #356]	; (449c <_Z10hat_noteonh+0x174>)
 hat_envelope1.decay((velocity/4)+20);
    4338:	4859      	ldr	r0, [pc, #356]	; (44a0 <_Z10hat_noteonh+0x178>)
 AudioNoInterrupts();
    433a:	f04f 4480 	mov.w	r4, #1073741824	; 0x40000000
    433e:	6014      	str	r4, [r2, #0]
 hat_envelope1.decay((velocity/4)+20);
    4340:	08b1      	lsrs	r1, r6, #2
    4342:	f64c 42cc 	movw	r2, #52428	; 0xcccc
    4346:	619a      	str	r2, [r3, #24]
    4348:	3114      	adds	r1, #20
    434a:	f7fe f919 	bl	2580 <_ZN25AudioEffectCustomEnvelope5decayEi>
 hat_filter_bp.resonance(map(velocity,0,127,100,70)/100.);
    434e:	2346      	movs	r3, #70	; 0x46
    4350:	227f      	movs	r2, #127	; 0x7f
    4352:	9300      	str	r3, [sp, #0]
    4354:	2100      	movs	r1, #0
    4356:	2364      	movs	r3, #100	; 0x64
    4358:	4630      	mov	r0, r6
    435a:	f005 fecb 	bl	a0f4 <_Z3maplllll>
    435e:	f008 fa37 	bl	c7d0 <__aeabi_i2d>
    4362:	2200      	movs	r2, #0
    4364:	4b4f      	ldr	r3, [pc, #316]	; (44a4 <_Z10hat_noteonh+0x17c>)
    4366:	f008 fbc3 	bl	caf0 <__aeabi_ddiv>
    436a:	f008 fd79 	bl	ce60 <__aeabi_d2f>
    436e:	4607      	mov	r7, r0
		if (q < 0.7) q = 0.7;
    4370:	f008 fa40 	bl	c7f4 <__aeabi_f2d>
    4374:	a346      	add	r3, pc, #280	; (adr r3, 4490 <_Z10hat_noteonh+0x168>)
    4376:	e9d3 2300 	ldrd	r2, r3, [r3]
    437a:	4604      	mov	r4, r0
    437c:	460d      	mov	r5, r1
    437e:	f008 fcff 	bl	cd80 <__aeabi_dcmplt>
    4382:	2800      	cmp	r0, #0
    4384:	d177      	bne.n	4476 <_Z10hat_noteonh+0x14e>
		else if (q > 5.0) q = 5.0;
    4386:	4638      	mov	r0, r7
    4388:	4947      	ldr	r1, [pc, #284]	; (44a8 <_Z10hat_noteonh+0x180>)
    438a:	f009 f883 	bl	d494 <__aeabi_fcmpgt>
    438e:	2800      	cmp	r0, #0
    4390:	d05f      	beq.n	4452 <_Z10hat_noteonh+0x12a>
    4392:	4d46      	ldr	r5, [pc, #280]	; (44ac <_Z10hat_noteonh+0x184>)
		setting_damp = (1.0 / q) * 1073741824.0;
    4394:	4c46      	ldr	r4, [pc, #280]	; (44b0 <_Z10hat_noteonh+0x188>)
 hat_mixer.gain(1, map(velocity,0,127,0,100)/100.); // snappy gain
    4396:	2100      	movs	r1, #0
    4398:	2364      	movs	r3, #100	; 0x64
    439a:	9300      	str	r3, [sp, #0]
    439c:	227f      	movs	r2, #127	; 0x7f
    439e:	460b      	mov	r3, r1
    43a0:	6265      	str	r5, [r4, #36]	; 0x24
    43a2:	4630      	mov	r0, r6
    43a4:	f005 fea6 	bl	a0f4 <_Z3maplllll>
    43a8:	f008 fa12 	bl	c7d0 <__aeabi_i2d>
    43ac:	2200      	movs	r2, #0
    43ae:	4b3d      	ldr	r3, [pc, #244]	; (44a4 <_Z10hat_noteonh+0x17c>)
    43b0:	f008 fb9e 	bl	caf0 <__aeabi_ddiv>
    43b4:	f008 fd54 	bl	ce60 <__aeabi_d2f>
		if (gain > 32767.0f) gain = 32767.0f;
    43b8:	493e      	ldr	r1, [pc, #248]	; (44b4 <_Z10hat_noteonh+0x18c>)
    43ba:	4604      	mov	r4, r0
    43bc:	f009 f86a 	bl	d494 <__aeabi_fcmpgt>
    43c0:	2800      	cmp	r0, #0
    43c2:	d156      	bne.n	4472 <_Z10hat_noteonh+0x14a>
		else if (gain < -32767.0f) gain = -32767.0f;
    43c4:	4620      	mov	r0, r4
    43c6:	493c      	ldr	r1, [pc, #240]	; (44b8 <_Z10hat_noteonh+0x190>)
    43c8:	f009 f846 	bl	d458 <__aeabi_fcmplt>
    43cc:	2800      	cmp	r0, #0
    43ce:	d15a      	bne.n	4486 <_Z10hat_noteonh+0x15e>
    43d0:	f04f 418f 	mov.w	r1, #1199570944	; 0x47800000
    43d4:	4620      	mov	r0, r4
    43d6:	f008 fea1 	bl	d11c <__aeabi_fmul>
    43da:	f009 f865 	bl	d4a8 <__aeabi_f2iz>
    43de:	4605      	mov	r5, r0
		multiplier[channel] = gain * 65536.0f; // TODO: proper roundoff?
    43e0:	4c36      	ldr	r4, [pc, #216]	; (44bc <_Z10hat_noteonh+0x194>)
 hat_mixer.gain(0, map(velocity,0,127,50,20)/100.); // noise gain
    43e2:	2314      	movs	r3, #20
    43e4:	9300      	str	r3, [sp, #0]
    43e6:	227f      	movs	r2, #127	; 0x7f
    43e8:	2332      	movs	r3, #50	; 0x32
    43ea:	2100      	movs	r1, #0
    43ec:	61e5      	str	r5, [r4, #28]
    43ee:	4630      	mov	r0, r6
    43f0:	f005 fe80 	bl	a0f4 <_Z3maplllll>
    43f4:	f008 f9ec 	bl	c7d0 <__aeabi_i2d>
    43f8:	2200      	movs	r2, #0
    43fa:	4b2a      	ldr	r3, [pc, #168]	; (44a4 <_Z10hat_noteonh+0x17c>)
    43fc:	f008 fb78 	bl	caf0 <__aeabi_ddiv>
    4400:	f008 fd2e 	bl	ce60 <__aeabi_d2f>
		if (gain > 32767.0f) gain = 32767.0f;
    4404:	492b      	ldr	r1, [pc, #172]	; (44b4 <_Z10hat_noteonh+0x18c>)
    4406:	4605      	mov	r5, r0
    4408:	f009 f844 	bl	d494 <__aeabi_fcmpgt>
    440c:	2800      	cmp	r0, #0
    440e:	d12e      	bne.n	446e <_Z10hat_noteonh+0x146>
		else if (gain < -32767.0f) gain = -32767.0f;
    4410:	4628      	mov	r0, r5
    4412:	4929      	ldr	r1, [pc, #164]	; (44b8 <_Z10hat_noteonh+0x190>)
    4414:	f009 f820 	bl	d458 <__aeabi_fcmplt>
    4418:	2800      	cmp	r0, #0
    441a:	d132      	bne.n	4482 <_Z10hat_noteonh+0x15a>
    441c:	f04f 418f 	mov.w	r1, #1199570944	; 0x47800000
    4420:	4628      	mov	r0, r5
    4422:	f008 fe7b 	bl	d11c <__aeabi_fmul>
    4426:	f009 f83f 	bl	d4a8 <__aeabi_f2iz>
    442a:	4602      	mov	r2, r0
 AudioInterrupts();
    442c:	4b24      	ldr	r3, [pc, #144]	; (44c0 <_Z10hat_noteonh+0x198>)
		multiplier[channel] = gain * 65536.0f; // TODO: proper roundoff?
    442e:	61a2      	str	r2, [r4, #24]
    4430:	f04f 4280 	mov.w	r2, #1073741824	; 0x40000000
    4434:	601a      	str	r2, [r3, #0]
 hat_envelope1.noteOn();
    4436:	481a      	ldr	r0, [pc, #104]	; (44a0 <_Z10hat_noteonh+0x178>)
    4438:	f7fe f8ba 	bl	25b0 <_ZN25AudioEffectCustomEnvelope6noteOnEv>
	volatile uint32_t ret = systick_millis_count; // single aligned 32 bit is atomic
    443c:	4b21      	ldr	r3, [pc, #132]	; (44c4 <_Z10hat_noteonh+0x19c>)
 hat_on_time = millis();
    443e:	4a22      	ldr	r2, [pc, #136]	; (44c8 <_Z10hat_noteonh+0x1a0>)
    4440:	681b      	ldr	r3, [r3, #0]
    4442:	9303      	str	r3, [sp, #12]
	return ret;
    4444:	9903      	ldr	r1, [sp, #12]
 hat_playing = 1;
    4446:	4b21      	ldr	r3, [pc, #132]	; (44cc <_Z10hat_noteonh+0x1a4>)
 hat_on_time = millis();
    4448:	6011      	str	r1, [r2, #0]
 hat_playing = 1;
    444a:	2201      	movs	r2, #1
    444c:	701a      	strb	r2, [r3, #0]
}
    444e:	b005      	add	sp, #20
    4450:	bdf0      	pop	{r4, r5, r6, r7, pc}
    4452:	462b      	mov	r3, r5
    4454:	4622      	mov	r2, r4
    4456:	2000      	movs	r0, #0
    4458:	491d      	ldr	r1, [pc, #116]	; (44d0 <_Z10hat_noteonh+0x1a8>)
    445a:	f008 fb49 	bl	caf0 <__aeabi_ddiv>
    445e:	2200      	movs	r2, #0
    4460:	4b1c      	ldr	r3, [pc, #112]	; (44d4 <_Z10hat_noteonh+0x1ac>)
    4462:	f008 fa1b 	bl	c89c <__aeabi_dmul>
    4466:	f008 fcb3 	bl	cdd0 <__aeabi_d2iz>
    446a:	4605      	mov	r5, r0
    446c:	e792      	b.n	4394 <_Z10hat_noteonh+0x6c>
		if (gain > 32767.0f) gain = 32767.0f;
    446e:	4a1a      	ldr	r2, [pc, #104]	; (44d8 <_Z10hat_noteonh+0x1b0>)
    4470:	e7dc      	b.n	442c <_Z10hat_noteonh+0x104>
    4472:	4d19      	ldr	r5, [pc, #100]	; (44d8 <_Z10hat_noteonh+0x1b0>)
    4474:	e7b4      	b.n	43e0 <_Z10hat_noteonh+0xb8>
		if (q < 0.7) q = 0.7;
    4476:	4d19      	ldr	r5, [pc, #100]	; (44dc <_Z10hat_noteonh+0x1b4>)
    4478:	e78c      	b.n	4394 <_Z10hat_noteonh+0x6c>
  hat_snappy.noteOn();
    447a:	4819      	ldr	r0, [pc, #100]	; (44e0 <_Z10hat_noteonh+0x1b8>)
    447c:	f006 fc98 	bl	adb0 <_ZN20AudioSynthSimpleDrum6noteOnEv>
    4480:	e758      	b.n	4334 <_Z10hat_noteonh+0xc>
		else if (gain < -32767.0f) gain = -32767.0f;
    4482:	4a18      	ldr	r2, [pc, #96]	; (44e4 <_Z10hat_noteonh+0x1bc>)
    4484:	e7d2      	b.n	442c <_Z10hat_noteonh+0x104>
    4486:	4d17      	ldr	r5, [pc, #92]	; (44e4 <_Z10hat_noteonh+0x1bc>)
    4488:	e7aa      	b.n	43e0 <_Z10hat_noteonh+0xb8>
    448a:	bf00      	nop
    448c:	f3af 8000 	nop.w
    4490:	66666666 	.word	0x66666666
    4494:	3fe66666 	.word	0x3fe66666
    4498:	e000e188 	.word	0xe000e188
    449c:	20001a04 	.word	0x20001a04
    44a0:	20001bcc 	.word	0x20001bcc
    44a4:	40590000 	.word	0x40590000
    44a8:	40a00000 	.word	0x40a00000
    44ac:	0ccccccc 	.word	0x0ccccccc
    44b0:	200023d4 	.word	0x200023d4
    44b4:	46fffe00 	.word	0x46fffe00
    44b8:	c6fffe00 	.word	0xc6fffe00
    44bc:	20001888 	.word	0x20001888
    44c0:	e000e108 	.word	0xe000e108
    44c4:	20002418 	.word	0x20002418
    44c8:	200018c0 	.word	0x200018c0
    44cc:	20002410 	.word	0x20002410
    44d0:	3ff00000 	.word	0x3ff00000
    44d4:	41d00000 	.word	0x41d00000
    44d8:	7fff0000 	.word	0x7fff0000
    44dc:	5b6db6f5 	.word	0x5b6db6f5
    44e0:	20001b58 	.word	0x20001b58
    44e4:	80010000 	.word	0x80010000

000044e8 <_Z8hatEventhi>:
  switch(event) {
    44e8:	2801      	cmp	r0, #1
void hatEvent(uint8_t event, int value) {
    44ea:	b538      	push	{r3, r4, r5, lr}
  switch(event) {
    44ec:	d011      	beq.n	4512 <_Z8hatEventhi+0x2a>
    44ee:	2802      	cmp	r0, #2
    44f0:	d10e      	bne.n	4510 <_Z8hatEventhi+0x28>
  hat_envelope1.noteOff();
    44f2:	480c      	ldr	r0, [pc, #48]	; (4524 <_Z8hatEventhi+0x3c>)
  AudioNoInterrupts();
    44f4:	4d0c      	ldr	r5, [pc, #48]	; (4528 <_Z8hatEventhi+0x40>)
    44f6:	4c0d      	ldr	r4, [pc, #52]	; (452c <_Z8hatEventhi+0x44>)
  hat_envelope1.noteOff();
    44f8:	f7fe f860 	bl	25bc <_ZN25AudioEffectCustomEnvelope7noteOffEv>
  AudioInterrupts();
    44fc:	480c      	ldr	r0, [pc, #48]	; (4530 <_Z8hatEventhi+0x48>)
  hat_playing = 0;
    44fe:	490d      	ldr	r1, [pc, #52]	; (4534 <_Z8hatEventhi+0x4c>)
  AudioNoInterrupts();
    4500:	f04f 4280 	mov.w	r2, #1073741824	; 0x40000000
    4504:	2300      	movs	r3, #0
    4506:	602a      	str	r2, [r5, #0]
    4508:	61a3      	str	r3, [r4, #24]
  AudioInterrupts();
    450a:	6002      	str	r2, [r0, #0]
  hat_playing = 0;
    450c:	700b      	strb	r3, [r1, #0]
    450e:	bd38      	pop	{r3, r4, r5, pc}
    4510:	bd38      	pop	{r3, r4, r5, pc}
  int val = constrain(value+63,0,127);
    4512:	313f      	adds	r1, #63	; 0x3f
    4514:	f381 0007 	usat	r0, #7, r1
      hat_noteon(val);
    4518:	b2c0      	uxtb	r0, r0
}
    451a:	e8bd 4038 	ldmia.w	sp!, {r3, r4, r5, lr}
      hat_noteon(val);
    451e:	f7ff bf03 	b.w	4328 <_Z10hat_noteonh>
    4522:	bf00      	nop
    4524:	20001bcc 	.word	0x20001bcc
    4528:	e000e188 	.word	0xe000e188
    452c:	20001a04 	.word	0x20001a04
    4530:	e000e108 	.word	0xe000e108
    4534:	20002410 	.word	0x20002410

00004538 <_Z6detuneii>:
    osc_saw_frequency = osc_saw_target_frequency;
    osc_pulse_frequency = osc_pulse_target_frequency;
  }
}

float detune(int note, int amount) { // amount goes from 0-1023
    4538:	b538      	push	{r3, r4, r5, lr}
  if (amount > 850) {
    453a:	f240 3352 	movw	r3, #850	; 0x352
    453e:	4299      	cmp	r1, r3
float detune(int note, int amount) { // amount goes from 0-1023
    4540:	4604      	mov	r4, r0
  if (amount > 850) {
    4542:	dd12      	ble.n	456a <_Z6detuneii+0x32>
  if(x < 0) {
    4544:	2800      	cmp	r0, #0
    4546:	db29      	blt.n	459c <_Z6detuneii+0x64>
    x = MIDI_HIGHEST_NOTE;
    4548:	2c5e      	cmp	r4, #94	; 0x5e
    454a:	bfa8      	it	ge
    454c:	245e      	movge	r4, #94	; 0x5e
    return midi_note_to_frequency(note) * (amount+9000)/10240.;
    454e:	f501 500c 	add.w	r0, r1, #8960	; 0x2300
    4552:	3028      	adds	r0, #40	; 0x28
    4554:	f008 fd8e 	bl	d074 <__aeabi_i2f>
  return MIDI_NOTE_FREQUENCY[x];
    4558:	4b20      	ldr	r3, [pc, #128]	; (45dc <_Z6detuneii+0xa4>)
    455a:	f853 1024 	ldr.w	r1, [r3, r4, lsl #2]
    455e:	f008 fddd 	bl	d11c <__aeabi_fmul>
    4562:	491f      	ldr	r1, [pc, #124]	; (45e0 <_Z6detuneii+0xa8>)
    4564:	f008 fe8e 	bl	d284 <__aeabi_fdiv>
    4568:	bd38      	pop	{r3, r4, r5, pc}
  }
  if (amount > 680) {
    456a:	f5b1 7f2a 	cmp.w	r1, #680	; 0x2a8
    456e:	dd08      	ble.n	4582 <_Z6detuneii+0x4a>
  if(x < 0) {
    4570:	1f04      	subs	r4, r0, #4
    4572:	d40e      	bmi.n	4592 <_Z6detuneii+0x5a>
    x = MIDI_HIGHEST_NOTE;
    4574:	2c5e      	cmp	r4, #94	; 0x5e
    4576:	bfa8      	it	ge
    4578:	245e      	movge	r4, #94	; 0x5e
  return MIDI_NOTE_FREQUENCY[x];
    457a:	4b18      	ldr	r3, [pc, #96]	; (45dc <_Z6detuneii+0xa4>)
    457c:	f853 0024 	ldr.w	r0, [r3, r4, lsl #2]
    4580:	bd38      	pop	{r3, r4, r5, pc}
    return midi_note_to_frequency(note - DETUNE_OFFSET_SEMITONES[0]);
  }
  if (amount > 560) {
    4582:	f5b1 7f0c 	cmp.w	r1, #560	; 0x230
    4586:	dc0b      	bgt.n	45a0 <_Z6detuneii+0x68>
    return midi_note_to_frequency(note - DETUNE_OFFSET_SEMITONES[1]);
  }
  if (amount > 350) {
    4588:	f5b1 7faf 	cmp.w	r1, #350	; 0x15e
    458c:	dd0b      	ble.n	45a6 <_Z6detuneii+0x6e>
  if(x < 0) {
    458e:	1fc4      	subs	r4, r0, #7
    4590:	d5f0      	bpl.n	4574 <_Z6detuneii+0x3c>
    x = 0;
    4592:	2400      	movs	r4, #0
  return MIDI_NOTE_FREQUENCY[x];
    4594:	4b11      	ldr	r3, [pc, #68]	; (45dc <_Z6detuneii+0xa4>)
    4596:	f853 0024 	ldr.w	r0, [r3, r4, lsl #2]
    459a:	bd38      	pop	{r3, r4, r5, pc}
    x = 0;
    459c:	2400      	movs	r4, #0
    459e:	e7d6      	b.n	454e <_Z6detuneii+0x16>
  if(x < 0) {
    45a0:	1f44      	subs	r4, r0, #5
    45a2:	d5e7      	bpl.n	4574 <_Z6detuneii+0x3c>
    45a4:	e7f5      	b.n	4592 <_Z6detuneii+0x5a>
    return midi_note_to_frequency(note - DETUNE_OFFSET_SEMITONES[2]);
  }
  if (amount > 200) {
    45a6:	29c8      	cmp	r1, #200	; 0xc8
    45a8:	dc12      	bgt.n	45d0 <_Z6detuneii+0x98>
    45aa:	3c0c      	subs	r4, #12
    45ac:	d413      	bmi.n	45d6 <_Z6detuneii+0x9e>
    x = MIDI_HIGHEST_NOTE;
    45ae:	2c5e      	cmp	r4, #94	; 0x5e
    45b0:	bfa8      	it	ge
    45b2:	245e      	movge	r4, #94	; 0x5e
    return midi_note_to_frequency(note - DETUNE_OFFSET_SEMITONES[3]);
  }
  return midi_note_to_frequency(note - 12) * ( 20000 - amount )/20000.;
    45b4:	f5c1 409c 	rsb	r0, r1, #19968	; 0x4e00
  return MIDI_NOTE_FREQUENCY[x];
    45b8:	4d08      	ldr	r5, [pc, #32]	; (45dc <_Z6detuneii+0xa4>)
    45ba:	3020      	adds	r0, #32
    45bc:	f008 fd5a 	bl	d074 <__aeabi_i2f>
    45c0:	f855 1024 	ldr.w	r1, [r5, r4, lsl #2]
    45c4:	f008 fdaa 	bl	d11c <__aeabi_fmul>
    45c8:	4906      	ldr	r1, [pc, #24]	; (45e4 <_Z6detuneii+0xac>)
    45ca:	f008 fe5b 	bl	d284 <__aeabi_fdiv>
}
    45ce:	bd38      	pop	{r3, r4, r5, pc}
  if(x < 0) {
    45d0:	3c09      	subs	r4, #9
    45d2:	d5cf      	bpl.n	4574 <_Z6detuneii+0x3c>
    45d4:	e7dd      	b.n	4592 <_Z6detuneii+0x5a>
    x = 0;
    45d6:	2400      	movs	r4, #0
    45d8:	e7ec      	b.n	45b4 <_Z6detuneii+0x7c>
    45da:	bf00      	nop
    45dc:	000118ec 	.word	0x000118ec
    45e0:	46200000 	.word	0x46200000
    45e4:	469c4000 	.word	0x469c4000

000045e8 <_Z12pitch_updatev>:
void pitch_update() {
    45e8:	e92d 43f0 	stmdb	sp!, {r4, r5, r6, r7, r8, r9, lr}
  detune_amount = muxAnalogRead(OSC_DETUNE_POT);
    45ec:	2003      	movs	r0, #3
void pitch_update() {
    45ee:	b083      	sub	sp, #12
  detune_amount = muxAnalogRead(OSC_DETUNE_POT);
    45f0:	f7fe fe24 	bl	323c <_Z13muxAnalogReadh>
  float osc_saw_target_frequency = detune(osc_pulse_midi_note,detune_amount);
    45f4:	4a22      	ldr	r2, [pc, #136]	; (4680 <_Z12pitch_updatev+0x98>)
  detune_amount = muxAnalogRead(OSC_DETUNE_POT);
    45f6:	4b23      	ldr	r3, [pc, #140]	; (4684 <_Z12pitch_updatev+0x9c>)
    45f8:	4601      	mov	r1, r0
  float osc_saw_target_frequency = detune(osc_pulse_midi_note,detune_amount);
    45fa:	7810      	ldrb	r0, [r2, #0]
  detune_amount = muxAnalogRead(OSC_DETUNE_POT);
    45fc:	6019      	str	r1, [r3, #0]
  float osc_saw_target_frequency = detune(osc_pulse_midi_note,detune_amount);
    45fe:	f7ff ff9b 	bl	4538 <_Z6detuneii>
    4602:	4604      	mov	r4, r0
  if(!muxDigitalRead(SLIDE_PIN)) {
    4604:	2001      	movs	r0, #1
    4606:	f7fe fe3f 	bl	3288 <_Z14muxDigitalReadh>
    460a:	2800      	cmp	r0, #0
    460c:	d12f      	bne.n	466e <_Z12pitch_updatev+0x86>
	volatile uint32_t ret = systick_millis_count; // single aligned 32 bit is atomic
    460e:	4e1e      	ldr	r6, [pc, #120]	; (4688 <_Z12pitch_updatev+0xa0>)
    if((millis() - pitch_update_time) > 10) {
    4610:	4d1e      	ldr	r5, [pc, #120]	; (468c <_Z12pitch_updatev+0xa4>)
    4612:	6833      	ldr	r3, [r6, #0]
    4614:	9300      	str	r3, [sp, #0]
	return ret;
    4616:	9a00      	ldr	r2, [sp, #0]
    4618:	682b      	ldr	r3, [r5, #0]
    461a:	1ad3      	subs	r3, r2, r3
    461c:	2b0a      	cmp	r3, #10
    461e:	d923      	bls.n	4668 <_Z12pitch_updatev+0x80>
      osc_saw_frequency = osc_saw_frequency + (osc_saw_target_frequency - osc_saw_frequency)*GLIDE_COEFFICIENT;
    4620:	f8df 8078 	ldr.w	r8, [pc, #120]	; 469c <_Z12pitch_updatev+0xb4>
      osc_pulse_frequency = osc_pulse_frequency + (osc_pulse_target_frequency - osc_pulse_frequency)*GLIDE_COEFFICIENT;
    4624:	4f1a      	ldr	r7, [pc, #104]	; (4690 <_Z12pitch_updatev+0xa8>)
      osc_saw_frequency = osc_saw_frequency + (osc_saw_target_frequency - osc_saw_frequency)*GLIDE_COEFFICIENT;
    4626:	f8d8 9000 	ldr.w	r9, [r8]
    462a:	4620      	mov	r0, r4
    462c:	4649      	mov	r1, r9
    462e:	f008 fc6b 	bl	cf08 <__aeabi_fsub>
    4632:	4918      	ldr	r1, [pc, #96]	; (4694 <_Z12pitch_updatev+0xac>)
    4634:	f008 fd72 	bl	d11c <__aeabi_fmul>
    4638:	4601      	mov	r1, r0
    463a:	4648      	mov	r0, r9
    463c:	f008 fc66 	bl	cf0c <__addsf3>
      osc_pulse_frequency = osc_pulse_frequency + (osc_pulse_target_frequency - osc_pulse_frequency)*GLIDE_COEFFICIENT;
    4640:	4b15      	ldr	r3, [pc, #84]	; (4698 <_Z12pitch_updatev+0xb0>)
    4642:	683c      	ldr	r4, [r7, #0]
      osc_saw_frequency = osc_saw_frequency + (osc_saw_target_frequency - osc_saw_frequency)*GLIDE_COEFFICIENT;
    4644:	f8c8 0000 	str.w	r0, [r8]
      osc_pulse_frequency = osc_pulse_frequency + (osc_pulse_target_frequency - osc_pulse_frequency)*GLIDE_COEFFICIENT;
    4648:	4621      	mov	r1, r4
    464a:	6818      	ldr	r0, [r3, #0]
    464c:	f008 fc5c 	bl	cf08 <__aeabi_fsub>
    4650:	4910      	ldr	r1, [pc, #64]	; (4694 <_Z12pitch_updatev+0xac>)
    4652:	f008 fd63 	bl	d11c <__aeabi_fmul>
    4656:	4601      	mov	r1, r0
    4658:	4620      	mov	r0, r4
    465a:	f008 fc57 	bl	cf0c <__addsf3>
	volatile uint32_t ret = systick_millis_count; // single aligned 32 bit is atomic
    465e:	6833      	ldr	r3, [r6, #0]
    4660:	9301      	str	r3, [sp, #4]
	return ret;
    4662:	9b01      	ldr	r3, [sp, #4]
    4664:	6038      	str	r0, [r7, #0]
      pitch_update_time = millis();
    4666:	602b      	str	r3, [r5, #0]
}
    4668:	b003      	add	sp, #12
    466a:	e8bd 83f0 	ldmia.w	sp!, {r4, r5, r6, r7, r8, r9, pc}
    osc_pulse_frequency = osc_pulse_target_frequency;
    466e:	490a      	ldr	r1, [pc, #40]	; (4698 <_Z12pitch_updatev+0xb0>)
    4670:	4a07      	ldr	r2, [pc, #28]	; (4690 <_Z12pitch_updatev+0xa8>)
    osc_saw_frequency = osc_saw_target_frequency;
    4672:	4b0a      	ldr	r3, [pc, #40]	; (469c <_Z12pitch_updatev+0xb4>)
    osc_pulse_frequency = osc_pulse_target_frequency;
    4674:	6809      	ldr	r1, [r1, #0]
    4676:	6011      	str	r1, [r2, #0]
    osc_saw_frequency = osc_saw_target_frequency;
    4678:	601c      	str	r4, [r3, #0]
}
    467a:	b003      	add	sp, #12
    467c:	e8bd 83f0 	ldmia.w	sp!, {r4, r5, r6, r7, r8, r9, pc}
    4680:	20001fd0 	.word	0x20001fd0
    4684:	20001d58 	.word	0x20001d58
    4688:	20002418 	.word	0x20002418
    468c:	2000205c 	.word	0x2000205c
    4690:	20001734 	.word	0x20001734
    4694:	3e99999a 	.word	0x3e99999a
    4698:	20002058 	.word	0x20002058
    469c:	20001fd4 	.word	0x20001fd4

